(dp0
S'SCS.N'
p1
I1111
sS'RGA.N'
p2
I2074
sS'BOBE.O'
p3
I1514
sS'ALTR.O'
p4
I65
sS'PLXS.O'
p5
I1006
sS'GMCR.O'
p6
I2995
sS'ATR.N'
p7
I1484
sS'BGP.N'
p8
I168
sS'AAP.N'
p9
I2
sS'RGC.N'
p10
I1066
sS'VIRT.O'
p11
I3290
sS'IR.N'
p12
I2191
sS'UTHR.O'
p13
I1304
sS'LAZ.N'
p14
I741
sS'UFS.N'
p15
I2180
sS'TYPE.O'
p16
I2563
sS'MS.N'
p17
I845
sS'RKT.N'
p18
I1072
sS'MU.N'
p19
I856
sS'MANT.O'
p20
I1911
sS'SNN.N'
p21
I2005
sS'AYE.N'
p22
I134
sS'WIT.N'
p23
I1348
sS'IPHS.O'
p24
I1973
sS'MW.N'
p25
I859
sS'NDAQ.O'
p26
I873
sS'DAN.N'
p27
I1941
sS'ALSN.N'
p28
I2649
sS'TY.N'
p29
I1861
sS'CRAY.O'
p30
I2762
sS'SKX.N'
p31
I1140
sS'VSTO.N'
p32
I3169
sS'SKYW.O'
p33
I1141
sS'MHR.N'
p34
I2476
sS'ISCA.O'
p35
I2027
sS'CW.N'
p36
I1479
sS'LNY.N'
p37
I1645
sS'NTY.N'
p38
I908
sS'RPT.N'
p39
I2370
sS'GENZ.O'
p40
I538
sS'LVS.N'
p41
I780
sS'SIX.N'
p42
I2525
sS'KBR.N'
p43
I706
sS'D.N'
p44
I377
sS'ALL.N'
p45
I62
sS'RXN.N'
p46
I2684
sS'RE.N'
p47
I1060
sS'SNH.N'
p48
I1155
sS'SNH.O'
p49
I3386
sS'DDC.N'
p50
I2821
sS'EXP.N'
p51
I481
sS'ODFL.O'
p52
I927
sS'CIG.N'
p53
I281
sS'SMCI.O'
p54
I2308
sS'EMR.N'
p55
I456
sS'HELE.O'
p56
I1948
sS'LNC.N'
p57
I763
sS'EBIX.O'
p58
I2245
sS'TXMD.A'
p59
I2972
sS'CUZ.N'
p60
I360
sS'PTMK.O'
p61
I1559
sS'WRES.O'
p62
I1581
sS'MFG.N'
p63
I1816
sS'URBN.O'
p64
I1297
sS'ZQK.N'
p65
I1391
sS'GRUB.N'
p66
I3069
sS'MFA.N'
p67
I1748
sS'EXPD.O'
p68
I482
sS'VNR.O'
p69
I2819
sS'ANR.N'
p70
I87
sS'NCC.N'
p71
I869
sS'PWR.N'
p72
I1038
sS'VNR.N'
p73
I2294
sS'PODD.O'
p74
I2259
sS'MFC.N'
p75
I816
sS'TRA.N'
p76
I1250
sS'BEL.N'
p77
I3047
sS'BEXP.O'
p78
I1965
sS'SIL.A'
p79
I1131
sS'TFX.N'
p80
I1620
sS'AEC.N'
p81
I2349
sS'SF.N'
p82
I2034
sS'TPC.N'
p83
I2175
sS'NVE.N'
p84
I2096
sS'SJM.N'
p85
I1136
sS'ZRAN.O'
p86
I1392
sS'CSH.N'
p87
I349
sS'TOUR.O'
p88
I3032
sS'SEM.N'
p89
I2240
sS'HUBS.N'
p90
I3336
sS'JEF.N'
p91
I692
sS'PBYI.N'
p92
I3202
sS'SNA.N'
p93
I1151
sS'MU.O'
p94
I2273
sS'EXL.N'
p95
I2760
sS'NVO.N'
p96
I1890
sS'INVN.N'
p97
I2612
sS'BKS.N'
p98
I182
sS'LTM.N'
p99
I776
sS'CXS.N'
p100
I2482
sS'RNG.N'
p101
I3178
sS'BKU.N'
p102
I2459
sS'TWX.N'
p103
I2155
sS'STNG.N'
p104
I2797
sS'FRGI.O'
p105
I2838
sS'EMN.N'
p106
I455
sS'BKW.N'
p107
I2696
sS'KITE.O'
p108
I3089
sS'DLB.N'
p109
I399
sS'RUE.O'
p110
I2276
sS'AFL.N'
p111
I37
sS'CPS.N'
p112
I329
sS'QIHU.N'
p113
I2485
sS'FMBI.O'
p114
I1610
sS'BOFI.O'
p115
I2885
sS'PDS.N'
p116
I2330
sS'CYBX.O'
p117
I1980
sS'VLO.N'
p118
I1314
sS'LFB.N'
p119
I750
sS'CLB.N'
p120
I287
sS'SNTS.O'
p121
I2728
sS'CNSL.O'
p122
I2544
sS'LGCY.O'
p123
I2038
sS'GWW.N'
p124
I575
sS'OUTR.O'
p125
I2868
sS'IMO.A'
p126
I1728
sS'FCS.O'
p127
I2911
sS'FCS.N'
p128
I490
sS'FRK.N'
p129
I522
sS'HAE.N'
p130
I1461
sS'PYPL.O'
p131
I3256
sS'AIZ.N'
p132
I53
sS'GHDX.O'
p133
I2160
sS'CRUS.O'
p134
I1407
sS'SKT.N'
p135
I1399
sS'BVN.N'
p136
I218
sS'BBY.N'
p137
I146
sS'DLX.N'
p138
I403
sS'ABCO.O'
p139
I2689
sS'GSIC.O'
p140
I565
sS'DVA.N'
p141
I425
sS'EAS.N'
p142
I432
sS'SNE.N'
p143
I1154
sS'SPMD.O'
p144
I2311
sS'SJI.N'
p145
I1568
sS'ID.N'
p146
I646
sS'AIR.N'
p147
I50
sS'SB.N'
p148
I2051
sS'RMD.N'
p149
I1074
sS'AKR.N'
p150
I56
sS'PBG.N'
p151
I963
sS'PYX.N'
p152
I1042
sS'IRF.N'
p153
I670
sS'AGCO.N'
p154
I2156
sS'ALB.N'
p155
I58
sS'VIVO.O'
p156
I1746
sS'KATE.N'
p157
I2987
sS'ORIT.O'
p158
I2372
sS'UAL.N'
p159
I2412
sS'LIHR.O'
p160
I1747
sS'ARRS.O'
p161
I3329
sS'PANL.O'
p162
I1859
sS'CERN.O'
p163
I263
sS'ALGT.O'
p164
I2019
sS'CVI.N'
p165
I1818
sS'TRI.N'
p166
I1927
sS'ZNGA.O'
p167
I2606
sS'NWE.N'
p168
I2042
sS'SFD.N'
p169
I1118
sS'CCME.O'
p170
I2409
sS'SSD.N'
p171
I1172
sS'RFMD.O'
p172
I1065
sS'WRI.N'
p173
I1362
sS'DOW.N'
p174
I409
sS'AVX.N'
p175
I127
sS'CAI.N'
p176
I228
sS'PRAA.O'
p177
I3101
sS'GLW.N'
p178
I548
sS'HON.N'
p179
I613
sS'TCS.N'
p180
I2945
sS'VEDL.N'
p181
I3274
sS'FNV.N'
p182
I2715
sS'SSCC.N'
p183
I2366
sS'ONB.O'
p184
I2878
sS'ABBV.N'
p185
I2782
sS'DECK.O'
p186
I1468
sS'AKAM.O'
p187
I55
sS'ETN.N'
p188
I2771
sS'RBN.N'
p189
I1052
sS'DCT.N'
p190
I3109
sS'LII.N'
p191
I757
sS'HTA.N'
p192
I3136
sS'NDLS.O'
p193
I2880
sS'TOT.N'
p194
I1247
sS'NVGS.N'
p195
I3078
sS'MIR.N'
p196
I824
sS'DAR.N'
p197
I1775
sS'HRC.N'
p198
I1934
sS'VSLR.N'
p199
I3097
sS'EVR.N'
p200
I2377
sS'CSR.N'
p201
I1803
sS'IDCC.O'
p202
I1687
sS'AWK.N'
p203
I1957
sS'HTE.N'
p204
I1902
sS'TCK.N'
p205
I1500
sS'REXR.N'
p206
I3227
sS'CAM.N'
p207
I231
sS'MEL.N'
p208
I812
sS'FRC.N'
p209
I1444
sS'WRE.N'
p210
I1361
sS'GTY.N'
p211
I2456
sS'BSC.N'
p212
I212
sS'SCHN.O'
p213
I1107
sS'IWOV.O'
p214
I682
sS'KRG.N'
p215
I3067
sS'CNHI.N'
p216
I2913
sS'WTW.N'
p217
I1369
sS'BOH.N'
p218
I197
sS'RT.N'
p219
I1597
sS'FLML.O'
p220
I509
sS'CVC.N'
p221
I362
sS'HSNI.O'
p222
I2029
sS'EPL.N'
p223
I2725
sS'WTS.N'
p224
I1368
sS'RARE.O'
p225
I1491
sS'PDE.N'
p226
I976
sS'CVA.N'
p227
I361
sS'POOL.O'
p228
I1018
sS'HTS.N'
p229
I1986
sS'RHI.N'
p230
I1069
sS'ALGN.O'
p231
I60
sS'ACOM.O'
p232
I2269
sS'TMH.N'
p233
I2320
sS'LOOP.O'
p234
I1613
sS'THI.N'
p235
I2229
sS'SLG.N'
p236
I1144
sS'JOY.N'
p237
I2613
sS'NAV.N'
p238
I866
sS'INFN.O'
p239
I1777
sS'NMBL.N'
p240
I3005
sS'PBI.N'
p241
I964
sS'TVPT.N'
p242
I3182
sS'TSEM.O'
p243
I3140
sS'QRE.N'
p244
I2650
sS'ACTS.O'
p245
I15
sS'YHOO.O'
p246
I1384
sS'BEAM.N'
p247
I2568
sS'CCU.N'
p248
I250
sS'UST.N'
p249
I1303
sS'E.N'
p250
I429
sS'LOCK.N'
p251
I2822
sS'SCHL.O'
p252
I1106
sS'DNKN.O'
p253
I2551
sS'NAT.N'
p254
I1443
sS'CEQP.N'
p255
I3313
sS'OMER.O'
p256
I3133
sS'SIRF.O'
p257
I1134
sS'KFN.N'
p258
I713
sS'HLYS.O'
p259
I603
sS'WUBA.N'
p260
I3055
sS'CTCT.O'
p261
I1799
sS'BXLT.N'
p262
I3239
sS'FNB.N'
p263
I517
sS'IRBT.O'
p264
I2464
sS'CAG.N'
p265
I226
sS'OPTR.O'
p266
I2110
sS'GIII.O'
p267
I2561
sS'WOOF.O'
p268
I1358
sS'MER.N'
p269
I814
sS'CHTT.O'
p270
I1490
sS'AHG.N'
p271
I44
sS'ACOR.O'
p272
I1886
sS'BNCL.O'
p273
I3152
sS'MET.N'
p274
I815
sS'KSS.N'
p275
I734
sS'GXDX.O'
p276
I2140
sS'ATSG.O'
p277
I2413
sS'OLN.N'
p278
I936
sS'NGD.A'
p279
I2008
sS'WMZ.N'
p280
I2080
sS'MNST.O'
p281
I2615
sS'SONC.O'
p282
I1162
sS'GLPI.O'
p283
I2925
sS'KSU.N'
p284
I735
sS'SUSQ.O'
p285
I1619
sS'AVB.N'
p286
I123
sS'FOE.N'
p287
I519
sS'PRGO.N'
p288
I2959
sS'TTS.O'
p289
I2851
sS'MRVL.O'
p290
I843
sS'CLX.N'
p291
I293
sS'AAMRQ.OB'
p292
I2805
sS'THO.N'
p293
I1223
sS'THM.A'
p294
I2383
sS'AVD.N'
p295
I2634
sS'LEJU.N'
p296
I3049
sS'HAR.N'
p297
I581
sS'DVAX.O'
p298
I3248
sS'VPRT.O'
p299
I2223
sS'SAN.N'
p300
I1999
sS'KCI.N'
p301
I707
sS'WAIR.N'
p302
I2567
sS'EROC.O'
p303
I1854
sS'JRCC.O'
p304
I1946
sS'RG.N'
p305
I1419
sS'MHO.N'
p306
I2777
sS'HBI.N'
p307
I585
sS'NPD.N'
p308
I1835
sS'FCAU.N'
p309
I3085
sS'WEC.N'
p310
I3229
sS'XLRN.O'
p311
I3024
sS'PDCO.O'
p312
I975
sS'MCCC.O'
p313
I796
sS'STAG.N'
p314
I2721
sS'LNCR.O'
p315
I764
sS'MKTX.O'
p316
I2548
sS'GRT.N'
p317
I1409
sS'CNET.O'
p318
I307
sS'CTRP.O'
p319
I355
sS'RDS/B.N'
p320
I1849
sS'EPB.N'
p321
I1843
sS'ITUB.N'
p322
I2163
sS'AINV.O'
p323
I49
sS'IPCR.O'
p324
I666
sS'BCSI.O'
p325
I1667
sS'LANC.O'
p326
I2132
sS'FRED.O'
p327
I1981
sS'RX.N'
p328
I1090
sS'APKT.O'
p329
I94
sS'CIB.N'
p330
I279
sS'ORBK.O'
p331
I3339
sS'F.N'
p332
I485
sS'ELLI.N'
p333
I2700
sS'GSAT.A'
p334
I3006
sS'TREE.O'
p335
I3237
sS'FUEL.O'
p336
I2928
sS'OII.N'
p337
I933
sS'ROC.N'
p338
I1657
sS'UBSI.O'
p339
I1819
sS'WTI.N'
p340
I1366
sS'TRE.A'
p341
I1852
sS'BITA.N'
p342
I2899
sS'NAVZ.OQ'
p343
I1433
sS'AMZN.O'
p344
I82
sS'ITMN.O'
p345
I678
sS'NVT.N'
p346
I914
sS'PLAB.O'
p347
I1000
sS'NXTM.O'
p348
I2368
sS'CSII.O'
p349
I2932
sS'GRP.N'
p350
I563
sS'SSNI.N'
p351
I2903
sS'LTR.N'
p352
I777
sS'PRX.N'
p353
I1028
sS'ONCE.O'
p354
I3270
sS'UAM.N'
p355
I2491
sS'CPLA.O'
p356
I2083
sS'PANW.N'
p357
I2709
sS'EZCH.O'
p358
I2105
sS'SBY.N'
p359
I2786
sS'AGR.N'
p360
I3328
sS'DAC.N'
p361
I2066
sS'IMGN.O'
p362
I2138
sS'EXAM.N'
p363
I2523
sS'SATS.O'
p364
I1892
sS'TPH.N'
p365
I2807
sS'LOCO.O'
p366
I3068
sS'NVL.N'
p367
I912
sS'CMPR.O'
p368
I3094
sS'NI.N'
p369
I883
sS'BKCC.O'
p370
I2339
sS'DDAIF.OB'
p371
I2350
sS'AHS.N'
p372
I46
sS'SPIL.O'
p373
I1165
sS'ACCL.O'
p374
I2780
sS'NK.O'
p375
I3261
sS'BGG.N'
p376
I167
sS'WXS.N'
p377
I2753
sS'PCH.O'
p378
I2418
sS'DGI.N'
p379
I2177
sS'GTRC.O'
p380
I570
sS'GGAL.O'
p381
I1505
sS'WCG.N'
p382
I1336
sS'TV.N'
p383
I1272
sS'MRK.N'
p384
I2252
sS'SWI.N'
p385
I2179
sS'DO.N'
p386
I407
sS'PIR.N'
p387
I1583
sS'HI.N'
p388
I2158
sS'ASX.N'
p389
I1501
sS'SNDK.O'
p390
I1153
sS'CISG.O'
p391
I1828
sS'VR.N'
p392
I1764
sS'THC.N'
p393
I2741
sS'SUM.N'
p394
I3257
sS'HNZ.N'
p395
I610
sS'LPSN.O'
p396
I2401
sS'SY.N'
p397
I1197
sS'ACM.N'
p398
I1648
sS'FGEN.O'
p399
I3203
sS'CRIC.O'
p400
I2253
sS'MOGa.N'
p401
I2116
sS'DG.N'
p402
I389
sS'ERTS.O'
p403
I469
sS'WYN.N'
p404
I1375
sS'FMS.N'
p405
I2062
sS'UAPH.O'
p406
I1281
sS'VOLC.O'
p407
I1424
sS'VVC.N'
p408
I1327
sS'CBH.N'
p409
I236
sS'THG.N'
p410
I1222
sS'FOXA.O'
p411
I2866
sS'ACAD.O'
p412
I2829
sS'AGRO.N'
p413
I2794
sS'DYN.N'
p414
I2749
sS'AXE.N'
p415
I130
sS'CUDA.N'
p416
I3191
sS'NOV.N'
p417
I896
sS'TGT.N'
p418
I1220
sS'SC.N'
p419
I2978
sS'ABB.N'
p420
I4
sS'MRCY.O'
p421
I3356
sS'SA.A'
p422
I1681
sS'KIM.N'
p423
I717
sS'ESND.O'
p424
I3267
sS'QNST.O'
p425
I2316
sS'HBAN.O'
p426
I583
sS'TITN.O'
p427
I2490
sS'JBLU.O'
p428
I686
sS'SCMP.O'
p429
I3187
sS'WMS.N'
p430
I1355
sS'SPNC.O'
p431
I2737
sS'CHK.N'
p432
I273
sS'NDSN.O'
p433
I1889
sS'TGP.N'
p434
I1944
sS'UNFI.O'
p435
I1290
sS'SO.N'
p436
I1159
sS'MXB.N'
p437
I1952
sS'HLTH.O'
p438
I1644
sS'POT.N'
p439
I1020
sS'IRC.N'
p440
I669
sS'RYN.N'
p441
I1093
sS'CHE.N'
p442
I270
sS'BGC.N'
p443
I166
sS'VMW.N'
p444
I1752
sS'FLIR.O'
p445
I508
sS'TT.N'
p446
I1833
sS'AREX.O'
p447
I2462
sS'SWK.N'
p448
I2318
sS'CHS.N'
p449
I276
sS'DAKT.O'
p450
I379
sS'SEAS.N'
p451
I2839
sS'LYB.N'
p452
I2403
sS'TIF.N'
p453
I1228
sS'TEL.N'
p454
I2189
sS'WCC.N'
p455
I1335
sS'FTO.N'
p456
I527
sS'LSXMA.O'
p457
I3351
sS'ROY.A'
p458
I2206
sS'GLT.N'
p459
I547
sS'ECR.N'
p460
I3053
sS'KMR.N'
p461
I2055
sS'FTI.N'
p462
I526
sS'ASN.N'
p463
I107
sS'HCLP.N'
p464
I3066
sS'PCYC.O'
p465
I2527
sS'FUQI.O'
p466
I2182
sS'PMCS.O'
p467
I1007
sS'LXU.N'
p468
I2465
sS'ROIC.O'
p469
I2275
sS'PLM.A'
p470
I1953
sS'AAWW.O'
p471
I2026
sS'FSS.N'
p472
I1547
sS'FISV.O'
p473
I504
sS'CBT.N'
p474
I243
sS'RSH.N'
p475
I1084
sS'FDS.N'
p476
I495
sS'PDA.N'
p477
I2192
sS'MXIM.OQ'
p478
I1750
sS'MDCA.O'
p479
I2992
sS'RRC.N'
p480
I1081
sS'TREX.N'
p481
I2663
sS'ED.N'
p482
I438
sS'BDN.N'
p483
I154
sS'BERY.N'
p484
I2778
sS'NGHC.O'
p485
I3038
sS'SDTH.O'
p486
I1867
sS'MPWR.O'
p487
I1744
sS'SPR.N'
p488
I1168
sS'PPC.N'
p489
I2300
sS'PETM.O'
p490
I983
sS'SAFM.O'
p491
I1095
sS'ARXT.O'
p492
I102
sS'HUM.N'
p493
I633
sS'CVTX.O'
p494
I367
sS'NG.A'
p495
I881
sS'MNRO.O'
p496
I2152
sS'NS.N'
p497
I1821
sS'CSTE.O'
p498
I2883
sS'OI.N'
p499
I932
sS'RYL.N'
p500
I1092
sS'IM.N'
p501
I655
sS'IDIX.O'
p502
I2539
sS'AGE.N'
p503
I40
sS'CBZ.N'
p504
I1826
sS'CPTS.O'
p505
I1841
sS'GWPH.O'
p506
I2982
sS'BHI.N'
p507
I170
sS'NYLD.N'
p508
I3213
sS'HLS.N'
p509
I1445
sS'ASB.N'
p510
I3116
sS'SWS.N'
p511
I1194
sS'TSE.N'
p512
I3348
sS'SAND.A'
p513
I2716
sS'PBR.N'
p514
I965
sS'ISIL.O'
p515
I672
sS'AUXL.O'
p516
I1725
sS'NBG.N'
p517
I2846
sS'PBT.N'
p518
I1745
sS'SU.N'
p519
I2205
sS'COF.N'
p520
I315
sS'ZIOP.O'
p521
I2688
sS'BBL.N'
p522
I1729
sS'RDY.N'
p523
I1059
sS'CNO.N'
p524
I2336
sS'BHS.N'
p525
I172
sS'NEWM.N'
p526
I3154
sS'IDXX.O'
p527
I1885
sS'BSBR.N'
p528
I2247
sS'IFS.N'
p529
I651
sS'BLL.N'
p530
I185
sS'TSS.N'
p531
I1431
sS'SYY.N'
p532
I1202
sS'MLNX.O'
p533
I1962
sS'EBS.N'
p534
I2065
sS'SCR.N'
p535
I1773
sS'USIH.O'
p536
I1432
sS'RJF.N'
p537
I1071
sS'SPLK.O'
p538
I2664
sS'CTR.N'
p539
I1661
sS'TRGP.N'
p540
I2480
sS'GWRE.N'
p541
I2645
sS'ITWO.O'
p542
I2212
sS'SSYS.O'
p543
I2776
sS'GYI.N'
p544
I577
sS'BMRN.O'
p545
I191
sS'IBI.N'
p546
I1958
sS'ORBC.O'
p547
I3343
sS'NYB.N'
p548
I921
sS'PEGI.O'
p549
I2958
sS'AW.N'
p550
I129
sS'TNB.N'
p551
I1243
sS'CTX.N'
p552
I358
sS'TGH.N'
p553
I2215
sS'R.N'
p554
I1048
sS'MYGN.O'
p555
I863
sS'ODP.O'
p556
I3072
sS'ANH.N'
p557
I1897
sS'ABT.N'
p558
I8
sS'AES.N'
p559
I32
sS'ENP.N'
p560
I2188
sS'HRH.N'
p561
I1507
sS'BXS.N'
p562
I1710
sS'MTOR.N'
p563
I2477
sS'MPG.N'
p564
I838
sS'CAT.N'
p565
I234
sS'RDEN.O'
p566
I1727
sS'DLPH.N'
p567
I2598
sS'ENR.N'
p568
I3241
sS'ON.O'
p569
I3174
sS'QSII.O'
p570
I1429
sS'FNFV.N'
p571
I3054
sS'SNCR.O'
p572
I1627
sS'MRC.N'
p573
I2758
sS'HAWKB.O'
p574
I3008
sS'EJ.N'
p575
I1740
sS'SPLS.O'
p576
I1166
sS'TEX.N'
p577
I1218
sS'CLNE.O'
p578
I1716
sS'BARE.O'
p579
I1562
sS'B.N'
p580
I138
sS'DADE.O'
p581
I378
sS'SMI.N'
p582
I1148
sS'OFG.N'
p583
I2832
sS'EL.N'
p584
I448
sS'GPRE.O'
p585
I2317
sS'DRH.N'
p586
I416
sS'TGNA.N'
p587
I3228
sS'AEE.N'
p588
I26
sS'ARCC.O'
p589
I98
sS'PRAH.O'
p590
I3280
sS'RCL.N'
p591
I1054
sS'GPC.N'
p592
I557
sS'COL.N'
p593
I320
sS'NPSP.O'
p594
I2079
sS'AVG.N'
p595
I2702
sS'ITCI.O'
p596
I3232
sS'VSEA.O'
p597
I1324
sS'GOLD.O'
p598
I556
sS'KG.N'
p599
I715
sS'OMF.N'
p600
I3299
sS'CRL.N'
p601
I339
sS'SUPN.O'
p602
I3233
sS'EV.N'
p603
I476
sS'TGTX.O'
p604
I3209
sS'GVA.N'
p605
I572
sS'PE.N'
p606
I3035
sS'BBV.N'
p607
I145
sS'MPS.N'
p608
I839
sS'TLRD.N'
p609
I3325
sS'INVA.O'
p610
I3317
sS'TZIX.O'
p611
I1280
sS'BBT.N'
p612
I144
sS'DNA.N'
p613
I404
sS'LCI.N'
p614
I2981
sS'TNP.N'
p615
I1823
sS'PRSP.O'
p616
I1565
sS'TSRO.O'
p617
I2850
sS'BLKB.O'
p618
I184
sS'LILAK.O'
p619
I3390
sS'W.N'
p620
I3163
sS'AAVL.O'
p621
I3148
sS'CTV.N'
p622
I357
sS'VMI.N'
p623
I1671
sS'SVR.N'
p624
I1549
sS'BOW.N'
p625
I200
sS'OGE.N'
p626
I930
sS'BDX.N'
p627
I155
sS'WB.O'
p628
I3016
sS'OTTR.O'
p629
I2039
sS'BHE.N'
p630
I169
sS'NTES.O'
p631
I904
sS'RHT.N'
p632
I1070
sS'QVCA.O'
p633
I3092
sS'MGA.N'
p634
I818
sS'SMRC.O'
p635
I2374
sS'KBW.N'
p636
I1879
sS'EIG.N'
p637
I1509
sS'TMK.N'
p638
I1240
sS'ITG.N'
p639
I677
sS'POL.N'
p640
I1016
sS'GOOG.O'
p641
I3286
sS'BAS.N'
p642
I1604
sS'PM.N'
p643
I1938
sS'NTRS.O'
p644
I907
sS'STBA.O'
p645
I2122
sS'COCO.O'
p646
I314
sS'RADS.O'
p647
I2375
sS'LKQX.O'
p648
I758
sS'FRO.N'
p649
I3333
sS'JOSB.O'
p650
I1592
sS'ADTN.O'
p651
I24
sS'COT.N'
p652
I2327
sS'AVEO.O'
p653
I2495
sS'BAK.N'
p654
I1395
sS'VALE.N'
p655
I2174
sS'ENTA.O'
p656
I3095
sS'KALU.O'
p657
I1954
sS'NKE.N'
p658
I886
sS'SQNM.O'
p659
I1989
sS'SXC.N'
p660
I2608
sS'ELP.N'
p661
I450
sS'LHO.N'
p662
I754
sS'IGTE.O'
p663
I2365
sS'WFM.O'
p664
I2500
sS'ABEV.N'
p665
I2931
sS'ENTR.O'
p666
I2358
sS'SMG.N'
p667
I1147
sS'FI.N'
p668
I2893
sS'WITS.O'
p669
I1401
sS'NFP.N'
p670
I878
sS'AMKR.O'
p671
I75
sS'KORS.N'
p672
I2604
sS'ARAY.O'
p673
I1531
sS'FFBC.O'
p674
I2176
sS'FWRD.O'
p675
I529
sS'NEE.N'
p676
I2347
sS'BGCP.O'
p677
I2422
sS'KRFT.O'
p678
I2746
sS'UNM.N'
p679
I1292
sS'SPN.N'
p680
I1167
sS'SKIL.O'
p681
I1137
sS'DHI.N'
p682
I391
sS'CAB.N'
p683
I225
sS'THX.N'
p684
I1225
sS'SPH.N'
p685
I2058
sS'DATA.N'
p686
I2930
sS'SYNT.O'
p687
I1875
sS'MDT.N'
p688
I3159
sS'N.N'
p689
I2376
sS'RPXC.O'
p690
I2584
sS'GLNG.O'
p691
I1643
sS'XRA.A'
p692
I2296
sS'GPK.N'
p693
I1947
sS'ARCO.N'
p694
I2492
sS'IRDM.O'
p695
I2231
sS'MSTR.O'
p696
I849
sS'BLT.N'
p697
I1918
sS'QMAR.O'
p698
I1467
sS'FINL.O'
p699
I2013
sS'ANET.N'
p700
I3084
sS'KS.N'
p701
I2338
sS'PGN.N'
p702
I2288
sS'RGLD.O'
p703
I1067
sS'ZLC.N'
p704
I1389
sS'LO.N'
p705
I1988
sS'RAD.N'
p706
I1049
sS'ROVI.O'
p707
I2198
sS'OPNT.O'
p708
I2574
sS'USBE.O'
p709
I1584
sS'BRC.N'
p710
I203
sS'PGI.N'
p711
I988
sS'LMCA.O'
p712
I2811
sS'XPO.N'
p713
I2962
sS'GR.N'
p714
I561
sS'BLX.N'
p715
I2018
sS'HCC.N'
p716
I588
sS'AXTA.N'
p717
I3122
sS'CSRA.N'
p718
I3318
sS'EGY.N'
p719
I2089
sS'SDLP.N'
p720
I3082
sS'HCA.N'
p721
I2478
sS'KANG.O'
p722
I3119
sS'LMDIA.O'
p723
I1987
sS'MIC.N'
p724
I1677
sS'TNH.N'
p725
I1601
sS'EHTH.O'
p726
I1810
sS'ALLE.N'
p727
I2952
sS'GD.N'
p728
I534
sS'RDWR.O'
p729
I2387
sS'OHI.N'
p730
I931
sS'CLD.N'
p731
I2280
sS'DEP.N'
p732
I2181
sS'VMC.N'
p733
I1316
sS'VAL.N'
p734
I1308
sS'WAFD.O'
p735
I2621
sS'SGEN.O'
p736
I1767
sS'FTV.N'
p737
I3399
sS'WNR.N'
p738
I1357
sS'MGM.N'
p739
I820
sS'SBS.N'
p740
I1103
sS'TRYb.N'
p741
I1258
sS'AIRM.O'
p742
I2781
sS'FLO.N'
p743
I510
sS'EPE.N'
p744
I1807
sS'MIM.N'
p745
I2128
sS'AEGN.O'
p746
I2575
sS'HEW.N'
p747
I593
sS'SMOD.O'
p748
I1149
sS'AAT.N'
p749
I2585
sS'MMSI.O'
p750
I2111
sS'IGT.N'
p751
I3189
sS'EGO.N'
p752
I2411
sS'TNAV.O'
p753
I2497
sS'TEO.N'
p754
I1215
sS'KRY.A'
p755
I732
sS'LPNT.O'
p756
I768
sS'TERP.O'
p757
I3093
sS'SCAI.O'
p758
I3331
sS'TEK.N'
p759
I1213
sS'GAS.N'
p760
I531
sS'ISIS.O'
p761
I673
sS'CRZO.O'
p762
I344
sS'LUV.N'
p763
I779
sS'BRO.N'
p764
I209
sS'CALL.O'
p765
I2639
sS'GHL.N'
p766
I1427
sS'FAST.O'
p767
I486
sS'STMP.O'
p768
I3258
sS'AMBA.O'
p769
I2960
sS'S.N'
p770
I2874
sS'MYCC.N'
p771
I3222
sS'CBE.N'
p772
I2221
sS'HIMX.O'
p773
I597
sS'COMM.O'
p774
I2936
sS'FLS.N'
p775
I512
sS'OSIP.O'
p776
I951
sS'XXIA.O'
p777
I1508
sS'STOR.N'
p778
I3181
sS'LYO.N'
p779
I784
sS'AOC.N'
p780
I88
sS'NSAM.N'
p781
I3059
sS'TKC.N'
p782
I1232
sS'ONXX.O'
p783
I1510
sS'MYL.O'
p784
I2101
sS'MITT.N'
p785
I2720
sS'BBBY.O'
p786
I142
sS'NDN.N'
p787
I874
sS'RTRX.O'
p788
I3190
sS'LEN.N'
p789
I749
sS'FAF.N'
p790
I2353
sS'JNY.N'
p791
I2404
sS'QDEL.O'
p792
I1887
sS'C.N'
p793
I2493
sS'MJN.N'
p794
I2145
sS'COLB.O'
p795
I2299
sS'GGG.N'
p796
I542
sS'TG.N'
p797
I1219
sS'LTD.N'
p798
I2823
sS'ZION.O'
p799
I1388
sS'HMC.N'
p800
I605
sS'WPZ.N'
p801
I3161
sS'NUAN.O'
p802
I909
sS'NYMT.O'
p803
I3112
sS'CYT.N'
p804
I375
sS'MF.N'
p805
I2293
sS'WLK.N'
p806
I1350
sS'RNO.A'
p807
I1590
sS'IDC.N'
p808
I1487
sS'BQI.A'
p809
I202
sS'STM.N'
p810
I1179
sS'SIAL.O'
p811
I1127
sS'FGP.N'
p812
I2100
sS'CLDT.N'
p813
I3114
sS'IDA.N'
p814
I647
sS'AZN.N'
p815
I136
sS'KRC.N'
p816
I731
sS'RAH.N'
p817
I1482
sS'AGN.N'
p818
I41
sS'VRTX.O'
p819
I1322
sS'BCEI.N'
p820
I2671
sS'VVUS.O'
p821
I2012
sS'KRA.N'
p822
I2295
sS'BIG.N'
p823
I175
sS'USG.N'
p824
I1301
sS'XNPT.O'
p825
I1561
sS'CLGX.N'
p826
I2343
sS'WYNN.O'
p827
I1376
sS'UGP.N'
p828
I2071
sS'VMED.O'
p829
I1489
sS'PLNT.N'
p830
I3380
sS'AMT.N'
p831
I79
sS'NICE.O'
p832
I1598
sS'LCAV.O'
p833
I742
sS'AAL.O'
p834
I2929
sS'DCEL.O'
p835
I381
sS'NRG.N'
p836
I898
sS'MLNM.O'
p837
I830
sS'NFX.N'
p838
I880
sS'BABY.O'
p839
I2002
sS'AAN.N'
p840
I2440
sS'ROCK.O'
p841
I2003
sS'SGMS.O'
p842
I1121
sS'HITT.O'
p843
I2072
sS'RTP.N'
p844
I1087
sS'NRE.N'
p845
I3319
sS'CVRR.N'
p846
I2801
sS'MDCO.O'
p847
I804
sS'HMA.N'
p848
I604
sS'CME.N'
p849
I1691
sS'SVM.N'
p850
I1188
sS'LPS.N'
p851
I2007
sS'COUP.N'
p852
I3098
sS'DISCK.O'
p853
I2057
sS'CAKE.O'
p854
I3295
sS'NCS.N'
p855
I2961
sS'MTX.N'
p856
I1472
sS'SVM.A'
p857
I2193
sS'MERC.O'
p858
I2468
sS'KTWO.O'
p859
I3395
sS'SNP.N'
p860
I1156
sS'ALJ.N'
p861
I1552
sS'PHRM.O'
p862
I994
sS'ISE.N'
p863
I671
sS'BWS.N'
p864
I221
sS'AME.N'
p865
I71
sS'RKUS.N'
p866
I2773
sS'AXCA.O'
p867
I1699
sS'JNC.N'
p868
I696
sS'AMG.N'
p869
I73
sS'CRS.N'
p870
I343
sS'EAC.N'
p871
I430
sS'TEG.N'
p872
I1519
sS'NILE.O'
p873
I1628
sS'CACI.N'
p874
I2157
sS'SIMO.O'
p875
I1518
sS'MAC.N'
p876
I788
sS'CRESY.O'
p877
I1985
sS'SNX.N'
p878
I1939
sS'LIFC.O'
p879
I756
sS'SPSS.O'
p880
I1622
sS'SEMG.N'
p881
I2503
sS'ATRS.O'
p882
I115
sS'MAKO.O'
p883
I2426
sS'HAS.O'
p884
I2420
sS'EFD.N'
p885
I443
sS'ENOC.O'
p886
I2202
sS'CPA.N'
p887
I327
sS'ZBRA.O'
p888
I1386
sS'KWD.N'
p889
I737
sS'ADSK.O'
p890
I23
sS'MEOH.O'
p891
I2329
sS'NTAP.O'
p892
I1929
sS'EFII.O'
p893
I444
sS'ALD.N'
p894
I59
sS'CBM.N'
p895
I1545
sS'UEPS.O'
p896
I1285
sS'PMI.N'
p897
I1008
sS'LDOS.N'
p898
I2908
sS'BBRY.O'
p899
I2879
sS'MTZ.N'
p900
I855
sS'CFFN.O'
p901
I2367
sS'IDTI.O'
p902
I648
sS'HAIN.O'
p903
I1662
sS'O.N'
p904
I923
sS'MOS.N'
p905
I2502
sS'LAUR.O'
p906
I740
sS'GFIG.O'
p907
I1517
sS'GFIG.N'
p908
I2389
sS'BEZ.N'
p909
I163
sS'PNFP.O'
p910
I2129
sS'FANG.O'
p911
I2833
sS'KPA.N'
p912
I729
sS'AMRI.O'
p913
I3262
sS'ORLY.O'
p914
I2443
sS'HCBK.O'
p915
I587
sS'WPP.N'
p916
I1611
sS'RUN.O'
p917
I3264
sS'BIIB.O'
p918
I176
sS'POS.N'
p919
I1019
sS'CMI.N'
p920
I300
sS'AFG.N'
p921
I36
sS'ENZN.O'
p922
I2113
sS'ACN.N'
p923
I2216
sS'GIMO.N'
p924
I2918
sS'CROX.O'
p925
I341
sS'ALR.N'
p926
I2369
sS'AYI.N'
p927
I135
sS'CATO.N'
p928
I2511
sS'PAYX.O'
p929
I962
sS'PCZ.N'
p930
I1874
sS'AXLL.N'
p931
I2796
sS'CMC.N'
p932
I295
sS'DLR.N'
p933
I402
sS'APPB.O'
p934
I96
sS'CMA.N'
p935
I294
sS'DLP.N'
p936
I401
sS'MVL.N'
p937
I858
sS'ONNN.O'
p938
I943
sS'SMP.N'
p939
I2787
sS'ACIW.O'
p940
I1709
sS'WIRE.O'
p941
I1632
sS'CYH.N'
p942
I372
sS'PMC.N'
p943
I1978
sS'EBRYY.OB'
p944
I3361
sS'CMG.N'
p945
I299
sS'NTCT.O'
p946
I2024
sS'ARR.N'
p947
I3253
sS'DISCA.O'
p948
I2064
sS'PSD.N'
p949
I1030
sS'AEIS.O'
p950
I28
sS'SAPE.O'
p951
I1098
sS'TPLM.A'
p952
I2909
sS'LGND.O'
p953
I2852
sS'NPBC.O'
p954
I1758
sS'ESRT.N'
p955
I2951
sS'RWT.N'
p956
I1498
sS'UPL.A'
p957
I1295
sS'ARJ.N'
p958
I2532
sS'SDXC.O'
p959
I1979
sS'SGYP.O'
p960
I3236
sS'MANH.O'
p961
I1481
sS'WR.N'
p962
I1360
sS'UPL.N'
p963
I1686
sS'GTN.N'
p964
I3186
sS'AIN.N'
p965
I48
sS'RPAI.N'
p966
I2679
sS'NTO.A'
p967
I1556
sS'NHI.N'
p968
I2947
sS'NCI.N'
p969
I870
sS'AJRD.N'
p970
I3234
sS'ARD.N'
p971
I1513
sS'LULU.O'
p972
I1733
sS'BOKF.O'
p973
I2006
sS'NTI.N'
p974
I2713
sS'ARCT.O'
p975
I2657
sS'PAH.N'
p976
I3023
sS'BID.N'
p977
I173
sS'LFL.N'
p978
I2740
sS'OVAS.O'
p979
I3141
sS'ETR.N'
p980
I475
sS'CODE.N'
p981
I2414
sS'FR.N'
p982
I521
sS'EBRb.N'
p983
I2075
sS'SPTN.O'
p984
I3315
sS'ELGX.O'
p985
I2534
sS'CRBC.O'
p986
I2637
sS'MTN.N'
p987
I854
sS'PCX.N'
p988
I1812
sS'KMI.N'
p989
I721
sS'QUAD.N'
p990
I3377
sS'ALV.N'
p991
I67
sS'PVG.N'
p992
I2289
sS'RES.N'
p993
I1063
sS'AIXG.O'
p994
I2435
sS'TYL.N'
p995
I2052
sS'MFE.N'
p996
I817
sS'LMT.N'
p997
I762
sS'PTCT.O'
p998
I2986
sS'HNI.N'
p999
I1540
sS'FDX.N'
p1000
I496
sS'DNB.N'
p1001
I405
sS'VIAb.N'
p1002
I1313
sS'FIT.N'
p1003
I3235
sS'TTPH.O'
p1004
I3128
sS'UMC.N'
p1005
I1787
sS'CRI.N'
p1006
I338
sS'BEN.N'
p1007
I161
sS'SEE.N'
p1008
I1114
sS'FBHS.N'
p1009
I2573
sS'DCP.N'
p1010
I1655
sS'LIVN.O'
p1011
I3277
sS'FNF.N'
p1012
I3048
sS'GEL.N'
p1013
I2393
sS'GEL.A'
p1014
I2054
sS'MITI.O'
p1015
I2204
sS'TTMI.O'
p1016
I1931
sS'AVNR.O'
p1017
I2864
sS'FRPT.O'
p1018
I1436
sS'ICE.N'
p1019
I2935
sS'KERX.O'
p1020
I2810
sS'BFR.N'
p1021
I3036
sS'REG.N'
p1022
I1061
sS'LLNW.O'
p1023
I1675
sS'RSTI.O'
p1024
I1864
sS'CXG.N'
p1025
I370
sS'ARIA.O'
p1026
I2386
sS'HTWR.O'
p1027
I2765
sS'ABMD.O'
p1028
I2021
sS'VIV.N'
p1029
I2570
sS'GMR.N'
p1030
I550
sS'LRN.N'
p1031
I2458
sS'LEAP.O'
p1032
I746
sS'SAVE.O'
p1033
I2617
sS'MEDX.O'
p1034
I810
sS'BER.N'
p1035
I162
sS'ADM.N'
p1036
I20
sS'CLH.N'
p1037
I2088
sS'SLAB.O'
p1038
I1142
sS'AMCN.O'
p1039
I1832
sS'HYC.N'
p1040
I2451
sS'SLM.O'
p1041
I2582
sS'SLM.N'
p1042
I1145
sS'CXO.N'
p1043
I1737
sS'REPYY.OB'
p1044
I2467
sS'ETP.N'
p1045
I474
sS'XEC.N'
p1046
I1378
sS'XRTX.O'
p1047
I1698
sS'RIGL.O'
p1048
I1871
sS'PEGA.O'
p1049
I2143
sS'PH.N'
p1050
I990
sS'AIT.N'
p1051
I51
sS'PDM.N'
p1052
I2313
sS'TRS.O'
p1053
I2381
sS'AIV.N'
p1054
I52
sS'SLXP.O'
p1055
I1459
sS'PF.N'
p1056
I2828
sS'BRKR.O'
p1057
I1478
sS'TOL.N'
p1058
I1246
sS'ALSK.O'
p1059
I1516
sS'GNW.N'
p1060
I555
sS'OUT.N'
p1061
I3113
sS'MCD.N'
p1062
I797
sS'WST.N'
p1063
I1365
sS'XIN.N'
p1064
I1876
sS'TTC.N'
p1065
I1265
sS'ASH.N'
p1066
I106
sS'VHS.N'
p1067
I2727
sS'CCO.N'
p1068
I1452
sS'LG.N'
p1069
I2078
sS'CWT.N'
p1070
I2518
sS'SSL.N'
p1071
I1174
sS'DIS.N'
p1072
I395
sS'BNS.N'
p1073
I1723
sS'SCTY.O'
p1074
I2784
sS'BC.N'
p1075
I147
sS'LE.O'
p1076
I3034
sS'TBPH.O'
p1077
I3031
sS'UVV.N'
p1078
I1483
sS'SBIB.O'
p1079
I1102
sS'ESS.N'
p1080
I1486
sS'SFL.N'
p1081
I1120
sS'WRC.N'
p1082
I1991
sS'ARBA.O'
p1083
I1460
sS'NUVA.O'
p1084
I1614
sS'VRUS.O'
p1085
I2341
sS'RST.N'
p1086
I2167
sS'NSC.N'
p1087
I899
sS'GGL.N'
p1088
I543
sS'HOV.N'
p1089
I616
sS'DNP.N'
p1090
I1771
sS'BK.N'
p1091
I179
sS'TRU.N'
p1092
I3271
sS'BECN.O'
p1093
I159
sS'ACTG.O'
p1094
I2348
sS'SFSF.N'
p1095
I2522
sS'SFSF.O'
p1096
I1972
sS'AWI.N'
p1097
I1913
sS'ESE.N'
p1098
I470
sS'NSM.N'
p1099
I901
sS'TRW.N'
p1100
I1257
sS'TCO.N'
p1101
I1208
sS'ETH.N'
p1102
I472
sS'AAV.N'
p1103
I2194
sS'CNP.N'
p1104
I310
sS'LTXB.O'
p1105
I3180
sS'DNDN.O'
p1106
I1591
sS'KEM.N'
p1107
I2452
sS'NATI.O'
p1108
I1469
sS'DECK.N'
p1109
I3003
sS'MFS.N'
p1110
I3346
sS'ROSE.O'
p1111
I1594
sS'TRQ.N'
p1112
I2708
sS'CCK.N'
p1113
I246
sS'CLMS.O'
p1114
I1778
sS'HL.N'
p1115
I599
sS'GW.A'
p1116
I573
sS'HRI.N'
p1117
I3400
sS'ECHO.O'
p1118
I3204
sS'NNI.N'
p1119
I892
sS'KNL.N'
p1120
I1504
sS'KSE.N'
p1121
I733
sS'RECN.O'
p1122
I1576
sS'IPXL.O'
p1123
I2168
sS'DGW.N'
p1124
I2195
sS'CNL.N'
p1125
I309
sS'AWAY.O'
p1126
I2610
sS'CSGS.O'
p1127
I348
sS'CBST.O'
p1128
I242
sS'PVTB.O'
p1129
I1974
sS'GM.N'
p1130
I2432
sS'FMI.O'
p1131
I3153
sS'CHT.N'
p1132
I2448
sS'MHK.N'
p1133
I821
sS'IBKR.O'
p1134
I1646
sS'GSS.A'
p1135
I567
sS'WIX.O'
p1136
I3238
sS'ARUN.O'
p1137
I1649
sS'PFG.N'
p1138
I986
sS'GERN.O'
p1139
I2090
sS'BG.N'
p1140
I165
sS'WES.N'
p1141
I2123
sS'CLP.N'
p1142
I291
sS'ATI.N'
p1143
I110
sS'TTM.N'
p1144
I1268
sS'HR.N'
p1145
I620
sS'TSFG.O'
p1146
I1400
sS'STWD.N'
p1147
I2218
sS'RP.O'
p1148
I2498
sS'CLR.N'
p1149
I1654
sS'MAR.N'
p1150
I790
sS'HMSY.O'
p1151
I1943
sS'LFT.N'
p1152
I1820
sS'DPM.N'
p1153
I1919
sS'STAY.N'
p1154
I3063
sS'HP.N'
p1155
I617
sS'SAIC.N'
p1156
I2954
sS'VLY.N'
p1157
I1315
sS'DDUP.O'
p1158
I1827
sS'FBR.N'
p1159
I2267
sS'IILG.O'
p1160
I2030
sS'NSU.A'
p1161
I2250
sS'STTS.O'
p1162
I1184
sS'WMGI.O'
p1163
I3288
sS'TTI.N'
p1164
I1267
sS'EQY.N'
p1165
I467
sS'EGRX.O'
p1166
I3219
sS'YRD.N'
p1167
I3357
sS'CF.N'
p1168
I264
sS'PNRA.O'
p1169
I1013
sS'JNJ.N'
p1170
I697
sS'SEP.N'
p1171
I2172
sS'SANM.O'
p1172
I2763
sS'HUBb.N'
p1173
I632
sS'ZG.O'
p1174
I3246
sS'HIH.N'
p1175
I596
sS'CNMD.O'
p1176
I2016
sS'AMCC.O'
p1177
I1882
sS'IMS.N'
p1178
I3025
sS'CEG.N'
p1179
I256
sS'PXD.N'
p1180
I1040
sS'CCC.N'
p1181
I1845
sS'PVR.N'
p1182
I2717
sS'HD.N'
p1183
I590
sS'YDKN.N'
p1184
I3378
sS'CB.N'
p1185
I235
sS'ACE.N'
p1186
I2011
sS'GFI.N'
p1187
I539
sS'HQY.O'
p1188
I3196
sS'TWC.N'
p1189
I2149
sS'KEG.N'
p1190
I1782
sS'CCE.N'
p1191
I2399
sS'TPRE.N'
p1192
I2897
sS'LNT.N'
p1193
I765
sS'ACC.N'
p1194
I1883
sS'NGLS.N'
p1195
I2307
sS'ACO.N'
p1196
I1575
sS'AGIO.O'
p1197
I2966
sS'MDAS.O'
p1198
I2109
sS'MCP.N'
p1199
I2380
sS'PBR/A.N'
p1200
I1848
sS'NVDQ.O'
p1201
I2971
sS'EDU.N'
p1202
I440
sS'IPGP.O'
p1203
I2378
sS'CKP.N'
p1204
I1863
sS'GSK.N'
p1205
I566
sS'DORM.O'
p1206
I2792
sS'DSX.N'
p1207
I1402
sS'SYA.N'
p1208
I2306
sS'SHPGY.O'
p1209
I1125
sS'KEA.N'
p1210
I709
sS'CFG.N'
p1211
I3087
sS'SHOO.O'
p1212
I1124
sS'HDS.O'
p1213
I2877
sS'CIT.N'
p1214
I2279
sS'AXON.N'
p1215
I3278
sS'MFRM.O'
p1216
I2659
sS'THOR.O'
p1217
I1224
sS'PTP.N'
p1218
I1398
sS'URI.N'
p1219
I1298
sS'PRTY.N'
p1220
I3301
sS'KCG.N'
p1221
I2882
sS'MNG.A'
p1222
I1608
sS'RNR.N'
p1223
I1075
sS'SWY.N'
p1224
I1196
sS'BGS.N'
p1225
I2222
sS'XLS.N'
p1226
I2587
sS'L.N'
p1227
I1966
sS'STAR.O'
p1228
I1769
sS'QEP.N'
p1229
I2360
sS'GEF.N'
p1230
I1630
sS'GORO.OB'
p1231
I2242
sS'QSFT.O'
p1232
I1047
sS'BKD.N'
p1233
I181
sS'HOMB.O'
p1234
I2905
sS'AIBYY.O'
p1235
I2556
sS'EURN.N'
p1236
I3194
sS'UTI.N'
p1237
I1305
sS'FDML.O'
p1238
I3250
sS'LCC.N'
p1239
I743
sS'ENTG.O'
p1240
I459
sS'OIS.N'
p1241
I934
sS'CTAS.O'
p1242
I351
sS'MCRS.O'
p1243
I1426
sS'ABV.N'
p1244
I9
sS'JWN.N'
p1245
I702
sS'TPP.N'
p1246
I1706
sS'SPGI.N'
p1247
I3366
sS'AAPL.O'
p1248
I3
sS'ONB.N'
p1249
I942
sS'CKH.N'
p1250
I284
sS'TRMB.O'
p1251
I1253
sS'ECL.N'
p1252
I436
sS'ECLP.O'
p1253
I437
sS'ALO.N'
p1254
I64
sS'VSH.N'
p1255
I1325
sS'MHS.N'
p1256
I822
sS'ARMH.O'
p1257
I1984
sS'MD.N'
p1258
I2118
sS'SZYM.O'
p1259
I2520
sS'JRN.N'
p1260
I1558
sS'FUL.N'
p1261
I528
sS'DDD.N'
p1262
I2488
sS'ACIA.O'
p1263
I3381
sS'CL.N'
p1264
I286
sS'OKS.N'
p1265
I2033
sS'ME.N'
p1266
I808
sS'CSTM.N'
p1267
I2926
sS'RF.N'
p1268
I1064
sS'ESNT.N'
p1269
I3110
sS'MYE.N'
p1270
I1564
sS'SNI.O'
p1271
I3342
sS'SNI.N'
p1272
I2000
sS'PTR.N'
p1273
I1035
sS'DY.N'
p1274
I428
sS'HOGS.O'
p1275
I2106
sS'NXY.N'
p1276
I920
sS'CEMP.O'
p1277
I3151
sS'SYK.N'
p1278
I1198
sS'A.N'
p1279
I0
sS'VLTR.O'
p1280
I2150
sS'DCI.N'
p1281
I382
sS'COV.N'
p1282
I2473
sS'KHC.O'
p1283
I3217
sS'HGT.N'
p1284
I1844
sS'NEWP.O'
p1285
I1463
sS'CYBR.O'
p1286
I3088
sS'NLSN.N'
p1287
I3265
sS'ALU.N'
p1288
I66
sS'DCM.N'
p1289
I1669
sS'SRX.N'
p1290
I1170
sS'CP.N'
p1291
I326
sS'NEWR.N'
p1292
I3332
sS'ABCB.O'
p1293
I3296
sS'VPHM.O'
p1294
I1319
sS'ADRO.O'
p1295
I3310
sS'OKE.N'
p1296
I935
sS'SSP.N'
p1297
I2827
sS'CEI.N'
p1298
I257
sS'ANW.N'
p1299
I1763
sS'JKS.N'
p1300
I2384
sS'GCA.N'
p1301
I1480
sS'ABD.N'
p1302
I6
sS'HMY.N'
p1303
I608
sS'ANAC.O'
p1304
I2963
sS'PAS.N'
p1305
I960
sS'HRL.N'
p1306
I622
sS'ATHL.N'
p1307
I2975
sS'CHSI.O'
p1308
I2050
sS'MCHP.O'
p1309
I799
sS'KMX.N'
p1310
I724
sS'PVH.N'
p1311
I2536
sS'ILMN.O'
p1312
I654
sS'PAET.O'
p1313
I1760
sS'CPRT.O'
p1314
I1536
sS'SWC.N'
p1315
I1190
sS'DE.N'
p1316
I385
sS'FMC.N'
p1317
I513
sS'RMBS.O'
p1318
I1073
sS'Q.N'
p1319
I1044
sS'NM.N'
p1320
I1609
sS'CELL.O'
p1321
I1612
sS'HFC.N'
p1322
I2529
sS'ALTE.O'
p1323
I2342
sS'IAC.O'
p1324
I3350
sS'NWBI.O'
p1325
I2284
sS'EXM.N'
p1326
I1715
sS'FRAN.O'
p1327
I2597
sS'MNK.N'
p1328
I2873
sS'BRGYY.OB'
p1329
I2622
sS'RGP.N'
p1330
I2547
sS'ZU.O'
p1331
I3131
sS'SWM.N'
p1332
I2304
sS'COGN.O'
p1333
I317
sS'EXC.N'
p1334
I479
sS'RICE.N'
p1335
I2980
sS'SPWRA.O'
p1336
I2049
sS'BLOX.N'
p1337
I2735
sS'INT.N'
p1338
I661
sS'GNTX.O'
p1339
I554
sS'MDVN.O'
p1340
I2017
sS'SSNC.O'
p1341
I2687
sS'AEA.N'
p1342
I25
sS'HES.N'
p1343
I591
sS'VIT.N'
p1344
I2169
sS'CLC.N'
p1345
I288
sS'ATRA.O'
p1346
I3226
sS'SM.N'
p1347
I2346
sS'AMAP.O'
p1348
I2831
sS'THRM.O'
p1349
I2912
sS'LSE.N'
p1350
I2830
sS'BKH.N'
p1351
I1502
sS'WTNY.O'
p1352
I1702
sS'CSE.N'
p1353
I347
sS'EMC.N'
p1354
I453
sS'FSM.N'
p1355
I3362
sS'CMRX.O'
p1356
I3044
sS'SRC.N'
p1357
I2738
sS'EME.N'
p1358
I454
sS'CRTO.O'
p1359
I2997
sS'SE.N'
p1360
I1113
sS'CEO.N'
p1361
I261
sS'RGEN.O'
p1362
I3099
sS'LSTR.O'
p1363
I775
sS'EGHT.O'
p1364
I2775
sS'EXAS.O'
p1365
I2594
sS'TEN.N'
p1366
I1214
sS'RLYP.O'
p1367
I3030
sS'VRNT.O'
p1368
I2752
sS'ELNK.O'
p1369
I3254
sS'IRE.N'
p1370
I2571
sS'HAFC.O'
p1371
I2802
sS'WMI.N'
p1372
I1354
sS'PNY.N'
p1373
I1015
sS'GLOG.N'
p1374
I2968
sS'IPHI.N'
p1375
I3223
sS'WRLD.O'
p1376
I1904
sS'PBF.N'
p1377
I2783
sS'UMPQ.O'
p1378
I1573
sS'CFL.N'
p1379
I2082
sS'TRN.N'
p1380
I1254
sS'BMR.N'
p1381
I190
sS'LNN.N'
p1382
I1866
sS'TRH.N'
p1383
I2148
sS'SMTC.O'
p1384
I1150
sS'FDRY.O'
p1385
I494
sS'AEG.N'
p1386
I27
sS'AMAT.O'
p1387
I69
sS'ASCA.O'
p1388
I105
sS'GWR.N'
p1389
I574
sS'DENN.O'
p1390
I2710
sS'IBOC.O'
p1391
I1924
sS'CAJ.N'
p1392
I229
sS'PNC.N'
p1393
I1010
sS'TDC.N'
p1394
I1784
sS'YUM.N'
p1395
I1385
sS'JCI.N'
p1396
I689
sS'SCSS.O'
p1397
I1112
sS'SJT.N'
p1398
I1888
sS'CAH.N'
p1399
I227
sS'CACQ.O'
p1400
I2991
sS'DTV.O'
p1401
I2719
sS'CDR.N'
p1402
I252
sS'SDRL.N'
p1403
I2332
sS'AVY.N'
p1404
I128
sS'GDOT.N'
p1405
I2499
sS'BMCH.O'
p1406
I3387
sS'SJR.N'
p1407
I1717
sS'APLE.N'
p1408
I3218
sS'BBD.N'
p1409
I143
sS'PNM.N'
p1410
I1012
sS'TRP.N'
p1411
I1256
sS'PRXL.O'
p1412
I1566
sS'PWE.N'
p1413
I2291
sS'DXCM.O'
p1414
I2297
sS'CFN.N'
p1415
I2234
sS'AMSG.O'
p1416
I2068
sS'RDC.N'
p1417
I1055
sS'ETFC.O'
p1418
I2344
sS'CMCSK.O'
p1419
I297
sS'DVN.N'
p1420
I426
sS'SOHU.O'
p1421
I1160
sS'CLHB.O'
p1422
I1923
sS'FCEa.N'
p1423
I3326
sS'RGR.N'
p1424
I2549
sS'GAME.O'
p1425
I2239
sS'GLF.N'
p1426
I2449
sS'GOV.O'
p1427
I3383
sS'EPAY.O'
p1428
I2415
sS'ASNA.O'
p1429
I2445
sS'CMCSA.O'
p1430
I296
sS'CUBE.N'
p1431
I2562
sS'SYNA.O'
p1432
I1201
sS'PETS.O'
p1433
I2067
sS'TDG.N'
p1434
I1837
sS'AON.N'
p1435
I2644
sS'SII.N'
p1436
I1130
sS'HRB.N'
p1437
I621
sS'AKS.N'
p1438
I57
sS'LL.N'
p1439
I2309
sS'ATLS.O'
p1440
I2230
sS'NMX.N'
p1441
I891
sS'ABX.N'
p1442
I2324
sS'PINC.O'
p1443
I3285
sS'CTB.N'
p1444
I352
sS'BWXT.N'
p1445
I3230
sS'CAL.N'
p1446
I230
sS'LAMR.O'
p1447
I3111
sS'GTAT.O'
p1448
I2545
sS'RBS.N'
p1449
I2085
sS'JD.O'
p1450
I3033
sS'EQT.N'
p1451
I2135
sS'WEN.O'
p1452
I2590
sS'WEN.N'
p1453
I1341
sS'SCHW.O'
p1454
I1108
sS'SCHW.N'
p1455
I2303
sS'HIW.N'
p1456
I598
sS'HXM.N'
p1457
I638
sS'AEM.N'
p1458
I2325
sS'SHLM.O'
p1459
I2070
sS'M.N'
p1460
I1652
sS'SIGI.O'
p1461
I1511
sS'MGG.N'
p1462
I1700
sS'AEO.N'
p1463
I1475
sS'PJC.N'
p1464
I1423
sS'MHGC.O'
p1465
I1696
sS'KAR.N'
p1466
I704
sS'BEAS.O'
p1467
I156
sS'TMO.N'
p1468
I1241
sS'CVX.N'
p1469
I368
sS'TWOU.O'
p1470
I3259
sS'MAIN.N'
p1471
I2578
sS'QLGC.O'
p1472
I1046
sS'LSI.O'
p1473
I2767
sS'LSI.N'
p1474
I773
sS'AVA.N'
p1475
I122
sS'FRX.N'
p1476
I524
sS'ELN.N'
p1477
I449
sS'PLAY.O'
p1478
I3162
sS'MMR.N'
p1479
I1834
sS'ADBE.O'
p1480
I17
sS'TUMI.N'
p1481
I2665
sS'CCP.N'
p1482
I3266
sS'INFO.O'
p1483
I3394
sS'DWA.O'
p1484
I2124
sS'DWA.N'
p1485
I427
sS'WMG.N'
p1486
I1353
sS'RY.N'
p1487
I2331
sS'PBH.N'
p1488
I1615
sS'CAR.O'
p1489
I2425
sS'CAR.N'
p1490
I233
sS'ELX.N'
p1491
I451
sS'EOG.N'
p1492
I460
sS'TGB.A'
p1493
I1776
sS'BXMT.N'
p1494
I3076
sS'RHP.N'
p1495
I2732
sS'ENLC.N'
p1496
I3316
sS'NLC.N'
p1497
I888
sS'PTV.N'
p1498
I1037
sS'LSS.N'
p1499
I774
sS'PNW.N'
p1500
I1014
sS'ESV.N'
p1501
I471
sS'KOG.N'
p1502
I2531
sS'LPLA.O'
p1503
I2686
sS'HT.N'
p1504
I3225
sS'CYCL.O'
p1505
I1588
sS'TRNX.O'
p1506
I2924
sS'IBM.N'
p1507
I642
sS'BUD.N'
p1508
I217
sS'DUK.N'
p1509
I2692
sS'COST.O'
p1510
I325
sS'WRK.N'
p1511
I3216
sS'MITL.O'
p1512
I2983
sS'PII.N'
p1513
I995
sS'UBB.N'
p1514
I1283
sS'MPW.N'
p1515
I1442
sS'EEFT.O'
p1516
I442
sS'HDP.O'
p1517
I3173
sS'SIR.O'
p1518
I3385
sS'GGWPQ.OQ'
p1519
I2171
sS'BRCM.O'
p1520
I204
sS'CTL.N'
p1521
I354
sS'ANDE.O'
p1522
I84
sS'LMNX.O'
p1523
I1873
sS'ESL.N'
p1524
I1441
sS'TROW.O'
p1525
I1255
sS'CETV.O'
p1526
I1794
sS'NTRI.O'
p1527
I906
sS'GPI.N'
p1528
I558
sS'CBOE.O'
p1529
I2508
sS'SFG.N'
p1530
I1653
sS'FLA.N'
p1531
I1539
sS'MIDD.O'
p1532
I2141
sS'EP.N'
p1533
I461
sS'NAK.A'
p1534
I1458
sS'PSSI.O'
p1535
I1031
sS'CTRE.O'
p1536
I3353
sS'INCR.O'
p1537
I3198
sS'MEE.N'
p1538
I811
sS'GMT.N'
p1539
I552
sS'ZLTQ.O'
p1540
I2969
sS'EPAM.N'
p1541
I2862
sS'TOC.N'
p1542
I1830
sS'MEG.N'
p1543
I1582
sS'SIGA.O'
p1544
I2406
sS'TWGP.O'
p1545
I1434
sS'WEB.O'
p1546
I3304
sS'HTH.N'
p1547
I1824
sS'ZNH.N'
p1548
I1753
sS'EPZM.O'
p1549
I2967
sS'CFSG.O'
p1550
I2164
sS'FOX.O'
p1551
I2865
sS'IRET.N'
p1552
I2766
sS'IRET.O'
p1553
I2040
sS'CECO.O'
p1554
I255
sS'VSI.N'
p1555
I2266
sS'CYPB.O'
p1556
I2120
sS'BMC.O'
p1557
I2227
sS'BMC.N'
p1558
I188
sS'FIX.N'
p1559
I1739
sS'CPKI.O'
p1560
I2133
sS'EPC.N'
p1561
I3231
sS'IL.N'
p1562
I2429
sS'MWA.N'
p1563
I2125
sS'MAR.O'
p1564
I2906
sS'PRE.N'
p1565
I1026
sS'BMA.N'
p1566
I187
sS'GATX.N'
p1567
I3382
sS'STRZA.O'
p1568
I2798
sS'GLDD.O'
p1569
I2208
sS'GLDN.O'
p1570
I1528
sS'WWAV.N'
p1571
I2844
sS'TBI.N'
p1572
I1857
sS'AMPH.O'
p1573
I3376
sS'NLNK.O'
p1574
I2973
sS'TNET.N'
p1575
I3074
sS'KFY.N'
p1576
I714
sS'WEX.N'
p1577
I2817
sS'MPC.N'
p1578
I2535
sS'X.N'
p1579
I1377
sS'LHCG.O'
p1580
I2020
sS'EEQ.N'
p1581
I2812
sS'CPGX.N'
p1582
I3215
sS'PRTA.O'
p1583
I3177
sS'HII.N'
p1584
I2483
sS'HOS.N'
p1585
I614
sS'FIVE.O'
p1586
I2707
sS'NGVT.N'
p1587
I3379
sS'PPG.N'
p1588
I1022
sS'WFC.N'
p1589
I1343
sS'CENX.O'
p1590
I260
sS'NSIT.O'
p1591
I900
sS'PLCE.O'
p1592
I1001
sS'CVD.N'
p1593
I363
sS'POWI.O'
p1594
I1801
sS'PNNT.O'
p1595
I2461
sS'CCG.N'
p1596
I2815
sS'NHP.N'
p1597
I882
sS'ICON.O'
p1598
I645
sS'MWE.N'
p1599
I1761
sS'MIL.N'
p1600
I823
sS'SUP.N'
p1601
I1921
sS'CRDN.O'
p1602
I336
sS'OCLR.O'
p1603
I2334
sS'EBAY.O'
p1604
I434
sS'ABM.N'
p1605
I7
sS'CBI.N'
p1606
I237
sS'KING.N'
p1607
I3007
sS'TMUS.O'
p1608
I3281
sS'HDB.N'
p1609
I1495
sS'AUO.N'
p1610
I119
sS'AMBC.O'
p1611
I2841
sS'MBT.N'
p1612
I795
sS'PKI.N'
p1613
I997
sS'TKLC.O'
p1614
I1233
sS'DF.N'
p1615
I2891
sS'ROH.N'
p1616
I1076
sS'CBG.N'
p1617
I2569
sS'CBPX.N'
p1618
I3268
sS'NKTR.O'
p1619
I887
sS'ACXM.O'
p1620
I16
sS'TWTC.O'
p1621
I1990
sS'LLY.N'
p1622
I760
sS'SWN.N'
p1623
I1193
sS'FBC.N'
p1624
I2739
sS'TTWO.O'
p1625
I1269
sS'TWTR.N'
p1626
I2949
sS'GRM.N'
p1627
I2315
sS'NBR.N'
p1628
I868
sS'DB.N'
p1629
I1537
sS'BPL.N'
p1630
I1926
sS'RTN.N'
p1631
I1086
sS'NOK.N'
p1632
I895
sS'SLRC.O'
p1633
I2514
sS'AZPN.O'
p1634
I1555
sS'DYAX.O'
p1635
I2910
sS'XLNX.O'
p1636
I1380
sS'WHR.N'
p1637
I1347
sS'SUN.N'
p1638
I1187
sS'MEI.N'
p1639
I2861
sS'GPS.N'
p1640
I560
sS'FOR.N'
p1641
I1993
sS'NPO.N'
p1642
I1526
sS'GYMB.O'
p1643
I578
sS'MYL.N'
p1644
I864
sS'DD.N'
p1645
I383
sS'EPIQ.O'
p1646
I2045
sS'IEX.N'
p1647
I1457
sS'SUNE.N'
p1648
I2849
sS'AIPC.O'
p1649
I2102
sS'MWW.N'
p1650
I2087
sS'CBK.N'
p1651
I238
sS'AFFX.O'
p1652
I35
sS'CPWR.O'
p1653
I331
sS'RAX.N'
p1654
I2028
sS'ABC.N'
p1655
I5
sS'STSA.O'
p1656
I2712
sS'FTNT.O'
p1657
I2278
sS'PBCT.O'
p1658
I1600
sS'ZOLT.O'
p1659
I1470
sS'VMSI.O'
p1660
I1405
sS'DTEGY.OB'
p1661
I2355
sS'KKD.N'
p1662
I718
sS'TNOX.O'
p1663
I1245
sS'GEOY.O'
p1664
I2035
sS'IVR.N'
p1665
I2335
sS'TLB.N'
p1666
I1236
sS'WMT.N'
p1667
I1356
sS'DWRE.N'
p1668
I2757
sS'NOW.N'
p1669
I2711
sS'CBEY.O'
p1670
I1420
sS'CYNO.O'
p1671
I3247
sS'MXIM.O'
p1672
I862
sS'PRI.N'
p1673
I2333
sS'AVCT.O'
p1674
I124
sS'MGAM.O'
p1675
I2813
sS'BMO.N'
p1676
I1730
sS'CPLP.O'
p1677
I2884
sS'RYI.N'
p1678
I1091
sS'NZ.P'
p1679
I1804
sS'CXP.N'
p1680
I2921
sS'MAT.O'
p1681
I2214
sS'KOG.A'
p1682
I2379
sS'PFGC.O'
p1683
I1621
sS'AKRX.O'
p1684
I1847
sS'LBTYA.O'
p1685
I2855
sS'SBGI.O'
p1686
I1529
sS'RCPT.O'
p1687
I2996
sS'DIVX.O'
p1688
I396
sS'CHRW.O'
p1689
I275
sS'FULT.O'
p1690
I1397
sS'SIMG.O'
p1691
I1132
sS'GRFS.O'
p1692
I2701
sS'CVLT.O'
p1693
I1578
sS'BMY.N'
p1694
I193
sS'LNCO.O'
p1695
I2754
sS'CGNX.O'
p1696
I1602
sS'PLT.N'
p1697
I1005
sS'LGF.N'
p1698
I752
sS'CHRS.O'
p1699
I3320
sS'WWW.N'
p1700
I1372
sS'ABG.N'
p1701
I1412
sS'PPS.N'
p1702
I1025
sS'LYG.N'
p1703
I1680
sS'STX.O'
p1704
I2361
sS'VAR.N'
p1705
I1309
sS'TRAK.O'
p1706
I1768
sS'GLBC.O'
p1707
I1428
sS'MORE.N'
p1708
I3134
sS'CHL.N'
p1709
I274
sS'FDP.N'
p1710
I1670
sS'WING.O'
p1711
I3273
sS'EA.O'
p1712
I2588
sS'TXI.N'
p1713
I1275
sS'RSG.N'
p1714
I1083
sS'HPY.N'
p1715
I1855
sS'VC.N'
p1716
I2434
sS'BPT.N'
p1717
I1473
sS'CRA.O'
p1718
I2139
sS'CRA.N'
p1719
I335
sS'LRCX.O'
p1720
I770
sS'NWL.N'
p1721
I915
sS'PLL.N'
p1722
I1003
sS'UFPI.O'
p1723
I1900
sS'CEDC.O'
p1724
I1546
sS'CBU.N'
p1725
I1842
sS'CBS.N'
p1726
I240
sS'CHH.N'
p1727
I271
sS'KRNY.O'
p1728
I3205
sS'MKTG.O'
p1729
I2614
sS'ABY.O'
p1730
I3080
sS'ABY.N'
p1731
I10
sS'AEP.N'
p1732
I30
sS'AGYS.O'
p1733
I1523
sS'NETL.O'
p1734
I1693
sS'XOM.N'
p1735
I1382
sS'JCP.N'
p1736
I690
sS'SGNT.O'
p1737
I2898
sS'GBG.A'
p1738
I2131
sS'WSDT.O'
p1739
I2454
sS'SON.N'
p1740
I1161
sS'DAR.A'
p1741
I1634
sS'MRKT.O'
p1742
I3051
sS'FSL.N'
p1743
I2519
sS'SGTPY.UNKNOWN'
p1744
I2419
sS'GRPN.O'
p1745
I2589
sS'HEI.N'
p1746
I2554
sS'NR.N'
p1747
I1593
sS'LBRDK.O'
p1748
I3117
sS'WPX.N'
p1749
I2619
sS'MTH.N'
p1750
I853
sS'HMHC.O'
p1751
I3020
sS'SEIC.O'
p1752
I1115
sS'XRS.N'
p1753
I3061
sS'RLGY.N'
p1754
I2751
sS'HYDL.O'
p1755
I639
sS'VG.N'
p1756
I1312
sS'DV.N'
p1757
I424
sS'GTIV.O'
p1758
I2009
sS'MCRL.O'
p1759
I802
sS'SYKE.O'
p1760
I1199
sS'AHL.N'
p1761
I45
sS'ALNY.O'
p1762
I63
sS'NOC.N'
p1763
I894
sS'BPZ.A'
p1764
I2059
sS'RACE.N'
p1765
I3327
sS'BPZ.N'
p1766
I2417
sS'RCI.N'
p1767
I1640
sS'VA.O'
p1768
I3129
sS'BDBD.O'
p1769
I2785
sS'SBH.N'
p1770
I1101
sS'ABVT.N'
p1771
I2225
sS'IWA.N'
p1772
I681
sS'BHP.N'
p1773
I171
sS'BDK.N'
p1774
I153
sS'FB.O'
p1775
I2681
sS'WGOV.O'
p1776
I1891
sS'SAGE.O'
p1777
I3206
sS'RVNC.O'
p1778
I3300
sS'EQC.N'
p1779
I3062
sS'ART.N'
p1780
I2237
sS'PCH.N'
p1781
I970
sS'CYMI.O'
p1782
I373
sS'MBFI.O'
p1783
I1814
sS'WMB.N'
p1784
I1352
sS'INWK.O'
p1785
I664
sS'OLLI.O'
p1786
I3269
sS'ORB.N'
p1787
I946
sS'HSH.N'
p1788
I2690
sS'EYE.N'
p1789
I484
sS'ENV.N'
p1790
I2881
sS'PSX.N'
p1791
I2666
sS'DNR.N'
p1792
I406
sS'TSN.N'
p1793
I1262
sS'OXY.N'
p1794
I956
sS'AER.N'
p1795
I31
sS'DGX.N'
p1796
I390
sS'XON.N'
p1797
I2892
sS'KNDL.O'
p1798
I1772
sS'NTGR.O'
p1799
I905
sS'AXP.N'
p1800
I132
sS'UBS.N'
p1801
I3118
sS'ENS.N'
p1802
I1665
sS'OO.N'
p1803
I944
sS'WL.N'
p1804
I1349
sS'TGI.N'
p1805
I1893
sS'CMVT.OQ'
p1806
I303
sS'NBL.N'
p1807
I867
sS'WWY.N'
p1808
I1373
sS'WCN.N'
p1809
I1337
sS'ZIP.O'
p1810
I2510
sS'SHW.N'
p1811
I1126
sS'EM.N'
p1812
I2217
sS'CDK.O'
p1813
I3086
sS'CYN.N'
p1814
I374
sS'PCL.N'
p1815
I971
sS'PLX.A'
p1816
I2187
sS'WB.N'
p1817
I1332
sS'ARCB.O'
p1818
I3013
sS'SPG.N'
p1819
I1164
sS'OMCL.O'
p1820
I1626
sS'DUF.N'
p1821
I2636
sS'PNR.N'
p1822
I3026
sS'MLM.N'
p1823
I829
sS'ORH.N'
p1824
I948
sS'ARST.O'
p1825
I2147
sS'WX.N'
p1826
I1742
sS'TS.N'
p1827
I1259
sS'CHZ.N'
p1828
I1396
sS'CRM.N'
p1829
I340
sS'DNN.A'
p1830
I1679
sS'KBH.N'
p1831
I705
sS'EDR.N'
p1832
I3121
sS'SHAW.N'
p1833
I2235
sS'VOCS.O'
p1834
I2053
sS'PRGS.O'
p1835
I1860
sS'ICL.N'
p1836
I3081
sS'EW.N'
p1837
I477
sS'MDC.N'
p1838
I803
sS'ADS.N'
p1839
I22
sS'TSYS.O'
p1840
I2103
sS'PEP.N'
p1841
I981
sS'TXU.N'
p1842
I1279
sS'TE.N'
p1843
I1210
sS'PX.N'
p1844
I1039
sS'CCOI.O'
p1845
I249
sS'TSL.N'
p1846
I1506
sS'PER.N'
p1847
I982
sS'USTR.O'
p1848
I1512
sS'PCP.N'
p1849
I973
sS'CME.O'
p1850
I1976
sS'MNTA.O'
p1851
I2010
sS'ARII.O'
p1852
I2824
sS'KNOL.O'
p1853
I2632
sS'CYD.N'
p1854
I2201
sS'BEE.N'
p1855
I160
sS'WNG.N'
p1856
I1580
sS'MTD.N'
p1857
I851
sS'FSIC.N'
p1858
I3014
sS'BDC.N'
p1859
I152
sS'TCLP.O'
p1860
I2261
sS'SCCO.N'
p1861
I2298
sS'TK.N'
p1862
I1231
sS'GEVA.O'
p1863
I2965
sS'CSAL.O'
p1864
I3193
sS'MMS.N'
p1865
I833
sS'POM.N'
p1866
I1017
sS'RDSb.N'
p1867
I1058
sS'TLAB.O'
p1868
I1235
sS'MTB.N'
p1869
I850
sS'LXRX.O'
p1870
I3221
sS'BDE.N'
p1871
I1756
sS'AL.N'
p1872
I2507
sS'PL.N'
p1873
I999
sS'MTRX.O'
p1874
I1795
sS'AMIS.O'
p1875
I1494
sS'AN.N'
p1876
I83
sS'CMS.N'
p1877
I302
sS'PRIM.O'
p1878
I2505
sS'FL.N'
p1879
I506
sS'VCI.N'
p1880
I1310
sS'ISLN.O'
p1881
I1579
sS'FWLT.O'
p1882
I2136
sS'FN.N'
p1883
I2466
sS'AH.N'
p1884
I43
sS'BAP.N'
p1885
I1437
sS'ELS.N'
p1886
I1917
sS'TBL.N'
p1887
I1206
sS'NOAH.N'
p1888
I2888
sS'WFSL.O'
p1889
I1344
sS'SMRT.O'
p1890
I1548
sS'SABR.O'
p1891
I3015
sS'RDN.N'
p1892
I1056
sS'GA.N'
p1893
I1829
sS'LTRPA.O'
p1894
I3075
sS'GBX.N'
p1895
I2441
sS'CATM.O'
p1896
I3392
sS'TW.O'
p1897
I3165
sS'TW.N'
p1898
I2277
sS'MRH.N'
p1899
I841
sS'BBBB.O'
p1900
I1477
sS'LEG.N'
p1901
I748
sS'BAX.N'
p1902
I141
sS'LEA.N'
p1903
I745
sS'FEIC.O'
p1904
I498
sS'RL.N'
p1905
I2550
sS'EIX.N'
p1906
I447
sS'ATMI.O'
p1907
I111
sS'ETM.N'
p1908
I473
sS'FBP.N'
p1909
I2714
sS'SMLP.N'
p1910
I3323
sS'BWA.N'
p1911
I219
sS'OC.N'
p1912
I1422
sS'SPRD.O'
p1913
I1783
sS'ENSG.O'
p1914
I2540
sS'BPFH.O'
p1915
I1571
sS'INTC.O'
p1916
I662
sS'WLSC.O'
p1917
I1493
sS'ANGI.O'
p1918
I2656
sS'ESPR.O'
p1919
I3146
sS'CCBL.O'
p1920
I1471
sS'ZNT.N'
p1921
I1464
sS'UNP.N'
p1922
I1293
sS'CSFL.O'
p1923
I3308
sS'IMCL.O'
p1924
I656
sS'BRFS.N'
p1925
I2258
sS'MDU.N'
p1926
I807
sS'AMLN.O'
p1927
I76
sS'PPDI.O'
p1928
I1021
sS'AB.N'
p1929
I1534
sS'AXDX.O'
p1930
I3042
sS'FITB.O'
p1931
I505
sS'FPO.N'
p1932
I2340
sS'DROOY.O'
p1933
I2134
sS'NOVL.O'
p1934
I897
sS'TIN.N'
p1935
I1229
sS'BW.N'
p1936
I3305
sS'BCR.N'
p1937
I150
sS'IMPV.N'
p1938
I2677
sS'WTFC.O'
p1939
I1798
sS'VNET.O'
p1940
I2494
sS'PFCB.O'
p1941
I984
sS'LM.N'
p1942
I761
sS'KNX.N'
p1943
I726
sS'GOV.N'
p1944
I2184
sS'ICO.N'
p1945
I644
sS'PPO.N'
p1946
I1964
sS'OAS.N'
p1947
I2362
sS'GS.N'
p1948
I564
sS'GG.N'
p1949
I540
sS'XRAY.O'
p1950
I3345
sS'BLUD.O'
p1951
I186
sS'CIEN.O'
p1952
I280
sS'CIEN.N'
p1953
I2946
sS'GE.N'
p1954
I537
sS'WDAY.N'
p1955
I2755
sS'ASIA.O'
p1956
I1922
sS'HST.N'
p1957
I627
sS'OMC.N'
p1958
I937
sS'KB.N'
p1959
I2046
sS'PB.N'
p1960
I2592
sS'ADI.O'
p1961
I2633
sS'ADI.N'
p1962
I19
sS'DRQ.N'
p1963
I419
sS'AF.N'
p1964
I34
sS'ARTC.O'
p1965
I2264
sS'FSLR.O'
p1966
I525
sS'CENTA.O'
p1967
I1520
sS'DRII.N'
p1968
I3166
sS'FIS.N'
p1969
I503
sS'CVBF.O'
p1970
I1408
sS'RYAM.N'
p1971
I3057
sS'PSEC.O'
p1972
I2162
sS'DST.N'
p1973
I420
sS'TRCO.N'
p1974
I3102
sS'HSP.N'
p1975
I626
sS'MSGN.N'
p1976
I3292
sS'DKS.N'
p1977
I398
sS'BCRX.O'
p1978
I2207
sS'ATW.N'
p1979
I117
sS'ITT.N'
p1980
I2579
sS'VOL.N'
p1981
I1318
sS'CRXL.O'
p1982
I2119
sS'AXYS.O'
p1983
I2098
sS'NWS.O'
p1984
I2870
sS'SERV.N'
p1985
I3065
sS'EGN.N'
p1986
I446
sS'ATU.N'
p1987
I116
sS'GISX.O'
p1988
I1454
sS'AMH.N'
p1989
I2889
sS'KND.N'
p1990
I725
sS'LINE.O'
p1991
I1780
sS'MAXY.O'
p1992
I2114
sS'SPB.N'
p1993
I2537
sS'PFE.N'
p1994
I985
sS'IFF.N'
p1995
I649
sS'NVDA.O'
p1996
I911
sS'MAT.N'
p1997
I792
sS'K.N'
p1998
I703
sS'FSYS.O'
p1999
I1992
sS'LILA.O'
p2000
I3391
sS'ISRG.O'
p2001
I675
sS'CLWR.O'
p2002
I2115
sS'GMST.O'
p2003
I551
sS'ULTA.O'
p2004
I1822
sS'BRL.N'
p2005
I208
sS'PZZA.O'
p2006
I1043
sS'PBRa.N'
p2007
I966
sS'SIFY.O'
p2008
I2471
sS'GAP.N'
p2009
I530
sS'ATHN.O'
p2010
I1788
sS'FII.N'
p2011
I502
sS'HAL.N'
p2012
I580
sS'IVZ.N'
p2013
I1839
sS'HTSI.N'
p2014
I2658
sS'AOL.N'
p2015
I2305
sS'SUNH.O'
p2016
I2292
sS'BNK.N'
p2017
I195
sS'QCOM.O'
p2018
I1045
sS'OSIS.O'
p2019
I2285
sS'LC.N'
p2020
I3144
sS'BNI.N'
p2021
I194
sS'GGB.N'
p2022
I541
sS'TLM.N'
p2023
I1238
sS'KOS.N'
p2024
I2504
sS'BIDU.O'
p2025
I174
sS'INFI.O'
p2026
I2706
sS'FLR.N'
p2027
I511
sS'MCGC.O'
p2028
I798
sS'TLK.N'
p2029
I1237
sS'RDUS.O'
p2030
I3139
sS'USCR.O'
p2031
I3344
sS'BA.N'
p2032
I139
sS'PCLN.O'
p2033
I972
sS'YOKU.N'
p2034
I2442
sS'RFP.N'
p2035
I2674
sS'HCP.N'
p2036
I1762
sS'ACS.N'
p2037
I14
sS'LNKD.N'
p2038
I2512
sS'GSM.O'
p2039
I3322
sS'WGO.N'
p2040
I1346
sS'MTU.N'
p2041
I1542
sS'JAKK.O'
p2042
I1605
sS'AMD.O'
p2043
I3124
sS'KEY.N'
p2044
I712
sS'UCBI.O'
p2045
I2887
sS'DFT.N'
p2046
I1813
sS'QSR.N'
p2047
I3107
sS'LKQ.O'
p2048
I2652
sS'WAG.N'
p2049
I1330
sS'GMLP.O'
p2050
I3149
sS'HALO.O'
p2051
I1755
sS'RUBI.N'
p2052
I3335
sS'AZO.N'
p2053
I137
sS'CMTL.O'
p2054
I1625
sS'PKX.N'
p2055
I998
sS'RAI.N'
p2056
I1050
sS'HTGC.N'
p2057
I2646
sS'PVX.N'
p2058
I2290
sS'JEC.N'
p2059
I691
sS'PHM.N'
p2060
I993
sS'AT.N'
p2061
I108
sS'FIG.N'
p2062
I1538
sS'MASI.O'
p2063
I1741
sS'DHT.N'
p2064
I3276
sS'ATO.N'
p2065
I113
sS'CNH.N'
p2066
I1425
sS'KN.N'
p2067
I2994
sS'DRC.N'
p2068
I414
sS'NRF.N'
p2069
I3293
sS'HCT.O'
p2070
I3009
sS'OMM.N'
p2071
I940
sS'WNC.N'
p2072
I2357
sS'SEPR.O'
p2073
I1116
sS'DPLO.N'
p2074
I3179
sS'VRA.O'
p2075
I2439
sS'HCR.N'
p2076
I589
sS'ICLR.O'
p2077
I2799
sS'APEI.O'
p2078
I2094
sS'PAA.N'
p2079
I1522
sS'BRCD.O'
p2080
I1676
sS'LPR.N'
p2081
I2566
sS'DOLE.N'
p2082
I2260
sS'ALE.N'
p2083
I1660
sS'QUNR.O'
p2084
I3137
sS'JLL.N'
p2085
I695
sS'CNVR.O'
p2086
I2976
sS'STJ.N'
p2087
I1177
sS'PAC.N'
p2088
I1418
sS'ETE.N'
p2089
I1711
sS'HSIC.O'
p2090
I625
sS'CBSH.O'
p2091
I1877
sS'DNOW.N'
p2092
I3039
sS'OPB.O'
p2093
I3365
sS'SFLY.O'
p2094
I1785
sS'WBD.N'
p2095
I2270
sS'PMT.N'
p2096
I2581
sS'ALK.N'
p2097
I61
sS'OPXT.O'
p2098
I1553
sS'AMD.N'
p2099
I70
sS'RLJ.N'
p2100
I2506
sS'KFRC.O'
p2101
I2565
sS'MON.N'
p2102
I837
sS'LXK.N'
p2103
I782
sS'HOG.N'
p2104
I611
sS'WABC.O'
p2105
I1707
sS'TROX.N'
p2106
I2704
sS'NXST.O'
p2107
I2842
sS'CN.N'
p2108
I1765
sS'PFS.N'
p2109
I1440
sS'URS.N'
p2110
I1299
sS'MGI.O'
p2111
I3000
sS'AAI.N'
p2112
I1
sS'AMTG.N'
p2113
I2675
sS'BJRI.O'
p2114
I2137
sS'SNY.N'
p2115
I1158
sS'AMP.N'
p2116
I78
sS'EDE.N'
p2117
I2104
sS'AZK.A'
p2118
I1797
sS'ISBC.O'
p2119
I3017
sS'HLSS.O'
p2120
I2747
sS'LQ.N'
p2121
I3021
sS'CEC.N'
p2122
I1453
sS'WSTC.O'
p2123
I3043
sS'CX.N'
p2124
I369
sS'EC.N'
p2125
I2364
sS'BNE.N'
p2126
I2319
sS'ALLT.O'
p2127
I2609
sS'TWI.N'
p2128
I1751
sS'LOPE.O'
p2129
I2107
sS'NWA.N'
p2130
I1658
sS'ARLP.O'
p2131
I1970
sS'HRBN.O'
p2132
I2186
sS'EDMC.O'
p2133
I2244
sS'LUK.N'
p2134
I778
sS'TIVO.O'
p2135
I1779
sS'CKR.N'
p2136
I285
sS'SN.N'
p2137
I2697
sS'VRGY.O'
p2138
I1320
sS'EVEP.O'
p2139
I2183
sS'FPRX.O'
p2140
I3303
sS'GOGO.O'
p2141
I2872
sS'HSC.N'
p2142
I624
sS'SHPG.O'
p2143
I2683
sS'WWE.N'
p2144
I2984
sS'NMR.N'
p2145
I890
sS'VHC.A'
p2146
I2395
sS'BIN.N'
p2147
I2538
sS'FELE.O'
p2148
I1616
sS'DISH.O'
p2149
I1894
sS'BUCY.O'
p2150
I216
sS'PTLA.O'
p2151
I2955
sS'EXPR.N'
p2152
I2345
sS'IMAX.N'
p2153
I2453
sS'TQNT.O'
p2154
I1249
sS'TMST.N'
p2155
I3058
sS'ITW.N'
p2156
I680
sS'OPK.O'
p2157
I3375
sS'OPK.N'
p2158
I2553
sS'V.N'
p2159
I1940
sS'NFS.N'
p2160
I879
sS'ARW.N'
p2161
I101
sS'PALM.O'
p2162
I959
sS'PCU.N'
p2163
I974
sS'SRCL.O'
p2164
I1636
sS'ATHR.O'
p2165
I109
sS'PAY.N'
p2166
I961
sS'VEEV.N'
p2167
I3073
sS'MRX.N'
p2168
I844
sS'PHG.N'
p2169
I991
sS'PCAR.O'
p2170
I968
sS'TKR.N'
p2171
I1234
sS'LPX.N'
p2172
I769
sS'IRM.N'
p2173
I3156
sS'CMO.N'
p2174
I1884
sS'SIE.N'
p2175
I1129
sS'FLTX.N'
p2176
I2902
sS'HSII.O'
p2177
I1749
sS'WG.N'
p2178
I2146
sS'IPI.N'
p2179
I1956
sS'HEES.O'
p2180
I1689
sS'ARI.N'
p2181
I2816
sS'CUP.A'
p2182
I1650
sS'GCO.N'
p2183
I533
sS'GCP.N'
p2184
I3374
sS'SGI.O'
p2185
I2470
sS'MR.N'
p2186
I840
sS'ENLK.N'
p2187
I2993
sS'ALY.N'
p2188
I1624
sS'IPG.N'
p2189
I667
sS'JNPR.N'
p2190
I2232
sS'JNPR.O'
p2191
I698
sS'GCI.N'
p2192
I3242
sS'SKS.N'
p2193
I1139
sS'TRB.N'
p2194
I1251
sS'MAPP.O'
p2195
I2694
sS'ARE.N'
p2196
I99
sS'TDW.N'
p2197
I1209
sS'TLEO.O'
p2198
I1809
sS'SINA.O'
p2199
I1133
sS'MDRX.O'
p2200
I806
sS'INN.N'
p2201
I2791
sS'FRT.N'
p2202
I523
sS'CML.N'
p2203
I2241
sS'LNG.A'
p2204
I3172
sS'NLY.N'
p2205
I889
sS'CDNS.O'
p2206
I251
sS'SBNY.O'
p2207
I1712
sS'USNA.O'
p2208
I1574
sS'BFb.N'
p2209
I164
sS'EXXI.O'
p2210
I2312
sS'BEC.N'
p2211
I158
sS'CLVS.O'
p2212
I2847
sS'NCX.N'
p2213
I872
sS'TFM.O'
p2214
I2486
sS'EDO.N'
p2215
I1642
sS'CJES.N'
p2216
I2552
sS'EIGI.O'
p2217
I2937
sS'VWR.O'
p2218
I3115
sS'NFG.N'
p2219
I876
sS'SRZ.N'
p2220
I1171
sS'CR.N'
p2221
I334
sS'EMS.N'
p2222
I2203
sS'ARMK.N'
p2223
I3022
sS'YY.O'
p2224
I2837
sS'BOBJ.O'
p2225
I196
sS'KSWS.O'
p2226
I1446
sS'CSG.N'
p2227
I2857
sS'UCO.N'
p2228
I1284
sS'ESRX.O'
p2229
I1683
sS'VRSN.O'
p2230
I1321
sS'CLE.N'
p2231
I289
sS'DOX.N'
p2232
I410
sS'DOX.O'
p2233
I2944
sS'HURN.O'
p2234
I1907
sS'CYTC.O'
p2235
I376
sS'RYAAY.O'
p2236
I3298
sS'MFB.N'
p2237
I2363
sS'SIM.A'
p2238
I1488
sS'QLIK.O'
p2239
I2390
sS'CFR.N'
p2240
I266
sS'ACET.O'
p2241
I3275
sS'OXPS.O'
p2242
I955
sS'CCMP.O'
p2243
I248
sS'SFC.N'
p2244
I1117
sS'AGAM.O'
p2245
I2255
sS'TDY.N'
p2246
I1448
sS'FMCN.O'
p2247
I514
sS'BCO.N'
p2248
I149
sS'PSS.N'
p2249
I1734
sS'DPZ.N'
p2250
I412
sS'STLD.O'
p2251
I1178
sS'RIG.N'
p2252
I2112
sS'IVC.N'
p2253
I1410
sS'ETQ.A'
p2254
I2151
sS'TDS.N'
p2255
I2043
sS'HSY.N'
p2256
I628
sS'TAP.N'
p2257
I1205
sS'JACK.O'
p2258
I2091
sS'CODI.N'
p2259
I2400
sS'SVNT.O'
p2260
I1414
sS'UAc.N'
p2261
I3363
sS'AYR.N'
p2262
I1485
sS'COLE.N'
p2263
I2876
sS'SREV.O'
p2264
I2526
sS'USFD.N'
p2265
I3389
sS'RPM.N'
p2266
I1080
sS'GKOS.N'
p2267
I3367
sS'LSCC.O'
p2268
I772
sS'MDXG.O'
p2269
I2836
sS'TIBX.O'
p2270
I1226
sS'CLMT.O'
p2271
I2283
sS'CCL.N'
p2272
I247
sS'BSMX.N'
p2273
I2745
sS'CKFR.O'
p2274
I283
sS'LFC.N'
p2275
I751
sS'HOPE.O'
p2276
I3393
sS'SHEN.O'
p2277
I3388
sS'HNT.N'
p2278
I609
sS'SLR.N'
p2279
I1146
sS'LF.N'
p2280
I2670
sS'GBBK.O'
p2281
I532
sS'TAL.N'
p2282
I2472
sS'PEB.N'
p2283
I2373
sS'CFX.N'
p2284
I1969
sS'SFI.N'
p2285
I1119
sS'IPS.N'
p2286
I668
sS'SLT.N'
p2287
I1688
sS'INO.O'
p2288
I3358
sS'NMFC.N'
p2289
I3010
sS'OGZP.O'
p2290
I2069
sS'SFM.O'
p2291
I2890
sS'BBND.O'
p2292
I1587
sS'TECH.O'
p2293
I3127
sS'HTZ.N'
p2294
I630
sS'ITRI.O'
p2295
I679
sS'PNK.N'
p2296
I1011
sS'PNK.O'
p2297
I3306
sS'CALM.O'
p2298
I1870
sS'WFT.N'
p2299
I3041
sS'ENT.O'
p2300
I2964
sS'XTO.N'
p2301
I1383
sS'GDDY.N'
p2302
I3192
sS'PACB.O'
p2303
I2416
sS'INGR.N'
p2304
I2678
sS'EGO.A'
p2305
I2328
sS'LOGM.O'
p2306
I2200
sS'BJ.N'
p2307
I177
sS'AMGN.O'
p2308
I74
sS'LDG.N'
p2309
I744
sS'BMET.O'
p2310
I189
sS'AWH.N'
p2311
I2463
sS'THRX.O'
p2312
I1673
sS'TRV.N'
p2313
I1530
sS'ACGL.O'
p2314
I1617
sS'MINI.O'
p2315
I1497
sS'NWY.N'
p2316
I916
sS'TEAM.O'
p2317
I3324
sS'CNQ.N'
p2318
I311
sS'NCLH.O'
p2319
I2804
sS'CNW.N'
p2320
I313
sS'LOGI.O'
p2321
I1541
sS'TYC.N'
p2322
I3108
sS'HPP.N'
p2323
I2669
sS'CVH.N'
p2324
I365
sS'INFA.O'
p2325
I658
sS'WCRX.O'
p2326
I2211
sS'CCJ.N'
p2327
I245
sS'IART.O'
p2328
I1656
sS'INSM.O'
p2329
I2970
sS'CREE.O'
p2330
I337
sS'JKHY.O'
p2331
I694
sS'TLN.N'
p2332
I3220
sS'ZAYO.N'
p2333
I3175
sS'RNOW.O'
p2334
I1817
sS'DOV.N'
p2335
I408
sS'NNN.N'
p2336
I893
sS'SIG.N'
p2337
I2391
sS'SNPS.O'
p2338
I1157
sS'SQM.N'
p2339
I1936
sS'PHLY.O'
p2340
I1694
sS'HLTOY.O'
p2341
I2394
sS'LI.N'
p2342
I755
sS'NSH.N'
p2343
I1719
sS'NITE.O'
p2344
I884
sS'HTV.N'
p2345
I1951
sS'DLTR.O'
p2346
I1914
sS'VTIV.O'
p2347
I1550
sS'SSI.N'
p2348
I1173
sS'SIGM.O'
p2349
I1560
sS'OCN.N'
p2350
I925
sS'NWSA.O'
p2351
I2871
sS'SWIR.O'
p2352
I1672
sS'GDP.N'
p2353
I536
sS'TUES.O'
p2354
I1270
sS'ZZ.N'
p2355
I1394
sS'GRA.N'
p2356
I562
sS'SCOR.O'
p2357
I1950
sS'MFN.A'
p2358
I1815
sS'VFC.N'
p2359
I1311
sS'DQE.N'
p2360
I413
sS'NTSP.O'
p2361
I2479
sS'HTX.N'
p2362
I1800
sS'RATE.N'
p2363
I2586
sS'DIN.N'
p2364
I2159
sS'PAYC.N'
p2365
I3157
sS'CVT.N'
p2366
I3359
sS'ACHC.O'
p2367
I2673
sS'NYCB.N'
p2368
I2743
sS'SMFG.N'
p2369
I2431
sS'BSX.N'
p2370
I214
sS'WERN.O'
p2371
I1342
sS'ALXN.O'
p2372
I68
sS'LECO.O'
p2373
I1920
sS'DIGE.O'
p2374
I393
sS'JAVA.O'
p2375
I1846
sS'CLS.N'
p2376
I292
sS'GNA.N'
p2377
I553
sS'SNWL.O'
p2378
I1805
sS'CYBS.O'
p2379
I1806
sS'CTSH.O'
p2380
I356
sS'ANDW.O'
p2381
I85
sS'CSU.N'
p2382
I2768
sS'IKN.N'
p2383
I652
sS'KELYA.O'
p2384
I2041
sS'DPL.N'
p2385
I411
sS'HOLX.O'
p2386
I612
sS'SIRI.O'
p2387
I2938
sS'BBVA.N'
p2388
I2262
sS'KOP.N'
p2389
I1949
sS'CG.N'
p2390
I267
sS'SALE.O'
p2391
I2895
sS'RS.N'
p2392
I1082
sS'PLCM.O'
p2393
I1002
sS'WPRT.O'
p2394
I2268
sS'CATY.O'
p2395
I1703
sS'BP.N'
p2396
I201
sS'TII.N'
p2397
I1996
sS'OSUR.O'
p2398
I2602
sS'QIWI.O'
p2399
I2939
sS'GBDC.O'
p2400
I2820
sS'CE.N'
p2401
I254
sS'TKTM.O'
p2402
I2031
sS'TESO.O'
p2403
I1831
sS'MUSA.N'
p2404
I2901
sS'PSMT.O'
p2405
I2501
sS'MAN.N'
p2406
I789
sS'INFY.N'
p2407
I2761
sS'INFY.O'
p2408
I659
sS'CHSP.N'
p2409
I2724
sS'SLF.N'
p2410
I1697
sS'COTY.N'
p2411
I2869
sS'DDS.N'
p2412
I384
sS'LVLT.N'
p2413
I2577
sS'FSR.N'
p2414
I2351
sS'SNV.N'
p2415
I3019
sS'WTR.N'
p2416
I1367
sS'GEO.N'
p2417
I3046
sS'EPIC.O'
p2418
I463
sS'EXK.A'
p2419
I2430
sS'LH.N'
p2420
I753
sS'ONE.N'
p2421
I2421
sS'ASTE.O'
p2422
I1906
sS'RCNI.O'
p2423
I1647
sS'RJET.O'
p2424
I1527
sS'HAS.N'
p2425
I582
sS'GIS.N'
p2426
I545
sS'VNTV.N'
p2427
I2661
sS'JDAS.O'
p2428
I1726
sS'STAR.N'
p2429
I2943
sS'HW.N'
p2430
I635
sS'OMTR.O'
p2431
I941
sS'FICO.N'
p2432
I2199
sS'ET.N'
p2433
I2680
sS'LXP.N'
p2434
I783
sS'CNC.N'
p2435
I305
sS'EVTC.N'
p2436
I2835
sS'ACL.N'
p2437
I13
sS'BAM.N'
p2438
I2326
sS'CKEC.O'
p2439
I3170
sS'WAC.N'
p2440
I2788
sS'BBCN.O'
p2441
I2611
sS'MCO.N'
p2442
I801
sS'SCSC.O'
p2443
I1898
sS'MEDI.O'
p2444
I809
sS'BPO.N'
p2445
I2396
sS'PMTI.O'
p2446
I1009
sS'AIG.N'
p2447
I2190
sS'P.N'
p2448
I2530
sS'HS.N'
p2449
I2025
sS'LSXMK.O'
p2450
I3352
sS'TIE.N'
p2451
I1227
sS'DIOD.O'
p2452
I394
sS'SSS.N'
p2453
I2084
sS'CSGP.O'
p2454
I1905
sS'PFWD.O'
p2455
I1705
sS'BRLI.O'
p2456
I2423
sS'UTEK.O'
p2457
I2457
sS'IHS.N'
p2458
I1666
sS'XOOM.O'
p2459
I2886
sS'CI.N'
p2460
I278
sS'QCOR.O'
p2461
I2048
sS'SWX.N'
p2462
I1195
sS'NOG.A'
p2463
I2321
sS'HLT.N'
p2464
I601
sS'BKC.N'
p2465
I180
sS'BKE.N'
p2466
I1878
sS'SGRY.O'
p2467
I3355
sS'KEYS.N'
p2468
I3104
sS'KRON.O'
p2469
I1455
sS'PACW.O'
p2470
I1959
sS'SYX.N'
p2471
I1430
sS'SSTK.N'
p2472
I3243
sS'HIBB.O'
p2473
I1496
sS'CZR.O'
p2474
I2643
sS'MOLX.O'
p2475
I836
sS'UBNT.O'
p2476
I2618
sS'TSLA.O'
p2477
I2371
sS'KNXA.N'
p2478
I2620
sS'KNXA.O'
p2479
I1439
sS'NEM.N'
p2480
I875
sS'NSR.N'
p2481
I902
sS'FCX.N'
p2482
I491
sS'KYTH.O'
p2483
I2907
sS'DX.N'
p2484
I2631
sS'SLH.N'
p2485
I1955
sS'JE.N'
p2486
I2790
sS'HCSG.O'
p2487
I1704
sS'ETSY.O'
p2488
I3197
sS'RBC.N'
p2489
I1051
sS'LWSN.O'
p2490
I781
sS'TFSL.O'
p2491
I1637
sS'CADX.O'
p2492
I2256
sS'GNRC.N'
p2493
I2314
sS'SHOP.N'
p2494
I3338
sS'PRA.N'
p2495
I2015
sS'HIG.N'
p2496
I595
sS'FNFG.O'
p2497
I518
sS'RBA.N'
p2498
I1908
sS'BPI.N'
p2499
I2166
sS'CM.N'
p2500
I1802
sS'SRE.N'
p2501
I1169
sS'ACAS.O'
p2502
I2001
sS'CHMT.N'
p2503
I2447
sS'OCR.N'
p2504
I926
sS'IBKC.O'
p2505
I2153
sS'IT.N'
p2506
I676
sS'BX.N'
p2507
I1690
sS'WIBC.O'
p2508
I2950
sS'ECA.N'
p2509
I435
sS'RINO.O'
p2510
I2224
sS'QRVO.O'
p2511
I3126
sS'INXN.N'
p2512
I2638
sS'NAVI.O'
p2513
I3002
sS'ING.N'
p2514
I660
sS'ABI.N'
p2515
I1997
sS'MCK.N'
p2516
I800
sS'DSW.N'
p2517
I421
sS'IP.N'
p2518
I665
sS'GNC.N'
p2519
I2542
sS'CS.N'
p2520
I345
sS'UHS.N'
p2521
I1287
sS'PFPT.O'
p2522
I2854
sS'XYL.N'
p2523
I2583
sS'SIR.N'
p2524
I2863
sS'SLGN.O'
p2525
I2056
sS'BANC.N'
p2526
I3340
sS'JWa.N'
p2527
I2099
sS'GPT.N'
p2528
I3184
sS'PAAS.O'
p2529
I957
sS'AUQ.N'
p2530
I2515
sS'CIM.N'
p2531
I3188
sS'KTO.N'
p2532
I1607
sS'LBTYK.O'
p2533
I2856
sS'MGLN.O'
p2534
I819
sS'ROL.N'
p2535
I1895
sS'DJO.N'
p2536
I1503
sS'YELP.N'
p2537
I2640
sS'HA.O'
p2538
I2196
sS'FMX.N'
p2539
I516
sS'LQDT.O'
p2540
I2546
sS'RA.N'
p2541
I2251
sS'ANF.N'
p2542
I86
sS'PKG.N'
p2543
I996
sS'FORM.O'
p2544
I520
sS'ORCL.O'
p2545
I947
sS'NEU.N'
p2546
I1596
sS'OPEN.O'
p2547
I2226
sS'ACCO.N'
p2548
I2647
sS'DJ.N'
p2549
I397
sS'GPOR.O'
p2550
I1945
sS'LAD.N'
p2551
I2576
sS'TECD.O'
p2552
I1211
sS'CDWC.O'
p2553
I253
sS'WBC.N'
p2554
I1721
sS'HRS.N'
p2555
I623
sS'RPTP.O'
p2556
I2894
sS'SWKS.O'
p2557
I1192
sS'HPQ.N'
p2558
I3291
sS'WOR.N'
p2559
I1359
sS'ROP.N'
p2560
I1078
sS'AHT.N'
p2561
I47
sS'NMM.N'
p2562
I2302
sS'PTEN.O'
p2563
I1034
sS'CQB.N'
p2564
I333
sS'PTC.O'
p2565
I2923
sS'HLIT.O'
p2566
I1462
sS'KPTI.O'
p2567
I3037
sS'BKI.N'
p2568
I1793
sS'MELI.O'
p2569
I1743
sS'EZPW.O'
p2570
I1977
sS'TTEK.O'
p2571
I1266
sS'MKTO.O'
p2572
I2900
sS'FLDM.O'
p2573
I2927
sS'XTXI.O'
p2574
I1551
sS'JAH.N'
p2575
I683
sS'ASBC.O'
p2576
I104
sS'GEOI.O'
p2577
I2455
sS'SHG.N'
p2578
I2086
sS'CTCM.O'
p2579
I353
sS'JBHT.O'
p2580
I684
sS'BSAC.N'
p2581
I2705
sS'NE.N'
p2582
I2942
sS'TSCO.O'
p2583
I1260
sS'LEAF.N'
p2584
I3195
sS'CALX.N'
p2585
I2487
sS'VQ.N'
p2586
I1942
sS'EXH.N'
p2587
I1708
sS'MOMO.O'
p2588
I3145
sS'SGMO.O'
p2589
I2953
sS'EVHC.N'
p2590
I2896
sS'VGR.N'
p2591
I1569
sS'LNCE.O'
p2592
I2460
sS'SPWR.O'
p2593
I2572
sS'BMS.N'
p2594
I192
sS'EAGL.O'
p2595
I431
sS'BLDR.O'
p2596
I2730
sS'EXLS.O'
p2597
I2672
sS'PRU.N'
p2598
I1027
sS'ONVO.A'
p2599
I2948
sS'LAB.N'
p2600
I2077
sS'RRR.O'
p2601
I3371
sS'RRR.N'
p2602
I1663
sS'ASML.O'
p2603
I2769
sS'SAY.N'
p2604
I1099
sS'JAZZ.O'
p2605
I2616
sS'MATX.N'
p2606
I2726
sS'PBY.N'
p2607
I967
sS'TLCR.O'
p2608
I2243
sS'MTSI.O'
p2609
I3155
sS'SA.N'
p2610
I2653
sS'CNQR.O'
p2611
I1618
sS'GILD.O'
p2612
I544
sS'EE.N'
p2613
I441
sS'CALD.O'
p2614
I3120
sS'EVER.N'
p2615
I2729
sS'SBUX.O'
p2616
I1104
sS'UTX.N'
p2617
I1307
sS'NXL.N'
p2618
I919
sS'MOGN.O'
p2619
I835
sS'VNDA.O'
p2620
I1451
sS'SWIM.O'
p2621
I1975
sS'CDW.O'
p2622
I2934
sS'PLD.N'
p2623
I2509
sS'ATVI.O'
p2624
I2004
sS'WLTW.O'
p2625
I3330
sS'BRKb.N'
p2626
I2301
sS'CHD.N'
p2627
I269
sS'RGS.N'
p2628
I1068
sS'DTG.N'
p2629
I423
sS'BRKL.O'
p2630
I206
sS'AQNT.O'
p2631
I97
sS'ARRY.O'
p2632
I2723
sS'STKL.O'
p2633
I1499
sS'EGOV.O'
p2634
I2185
sS'WWD.O'
p2635
I2444
sS'MIK.O'
p2636
I3056
sS'DTE.N'
p2637
I422
sS'VRSK.O'
p2638
I2248
sS'GLG.N'
p2639
I1811
sS'AFAM.O'
p2640
I2076
sS'PRISb.N'
p2641
I2438
sS'QUOT.N'
p2642
I3341
sS'NX.N'
p2643
I917
sS'CODI.O'
p2644
I2323
sS'KTC.N'
p2645
I736
sS'CUK.N'
p2646
I1770
sS'OSI.N'
p2647
I950
sS'SYMC.O'
p2648
I1200
sS'NZ.N'
p2649
I2249
sS'CSL.N'
p2650
I1577
sS'AUY.N'
p2651
I120
sS'SNIC.O'
p2652
I2408
sS'OSK.N'
p2653
I952
sS'AMAG.O'
p2654
I1786
sS'AET.N'
p2655
I33
sS'ADPT.N'
p2656
I3283
sS'FSP.A'
p2657
I2014
sS'BEAV.O'
p2658
I157
sS'EXR.N'
p2659
I483
sS'TRID.O'
p2660
I1252
sS'HXL.N'
p2661
I637
sS'AEL.N'
p2662
I29
sS'SCUR.O'
p2663
I1766
sS'AXL.N'
p2664
I131
sS'CST.N'
p2665
I2840
sS'VLCM.O'
p2666
I1701
sS'MMM.N'
p2667
I832
sS'PBKS.O'
p2668
I1796
sS'PWER.O'
p2669
I2354
sS'MX.N'
p2670
I2800
sS'HUN.N'
p2671
I634
sS'LGIH.O'
p2672
I3398
sS'AVAV.O'
p2673
I2073
sS'XMSR.O'
p2674
I1381
sS'INTU.O'
p2675
I663
sS'MMC.N'
p2676
I831
sS'BCOR.O'
p2677
I2682
sS'NVRO.N'
p2678
I3214
sS'FMSA.N'
p2679
I3245
sS'CVS.N'
p2680
I366
sS'SEDG.O'
p2681
I3199
sS'TAM.N'
p2682
I1204
sS'ELY.N'
p2683
I452
sS'NJR.N'
p2684
I885
sS'ATPG.O'
p2685
I114
sS'YPF.N'
p2686
I2474
sS'TCBI.O'
p2687
I2037
sS'HPE.N'
p2688
I3307
sS'PGNX.O'
p2689
I1554
sS'TMX.N'
p2690
I1242
sS'CFC.N'
p2691
I265
sS'BPOP.O'
p2692
I2676
sS'SPPI.O'
p2693
I2541
sS'AVAL.N'
p2694
I3183
sS'BWP.N'
p2695
I220
sS'TGA.O'
p2696
I2428
sS'ST.N'
p2697
I2322
sS'TC.N'
p2698
I1930
sS'HPC.N'
p2699
I618
sS'CONN.O'
p2700
I2648
sS'COG.N'
p2701
I316
sS'ASTSF.O'
p2702
I1685
sS'HTCH.O'
p2703
I1759
sS'HZNP.O'
p2704
I3077
sS'PRLB.N'
p2705
I2750
sS'TILE.O'
p2706
I2779
sS'OZM.N'
p2707
I1840
sS'APAM.N'
p2708
I2999
sS'JUNO.O'
p2709
I3150
sS'TRLA.N'
p2710
I2808
sS'EVVV.O'
p2711
I1606
sS'WEBX.O'
p2712
I1340
sS'EBR.N'
p2713
I2095
sS'COGT.O'
p2714
I318
sS'ERF.N'
p2715
I2397
sS'ZEN.N'
p2716
I3103
sS'LEE.N'
p2717
I747
sS'MIPS.O'
p2718
I2402
sS'IBN.N'
p2719
I643
sS'MLI.N'
p2720
I828
sS'STEC.O'
p2721
I1960
sS'KDN.N'
p2722
I708
sS'CEVA.O'
p2723
I2481
sS'EXPE.O'
p2724
I2601
sS'BAC.N'
p2725
I140
sS'AV.N'
p2726
I121
sS'UNT.N'
p2727
I1294
sS'MWAb.N'
p2728
I860
sS'OPK.A'
p2729
I2356
sS'ZGEN.O'
p2730
I1387
sS'STEI.O'
p2731
I1175
sS'FHN.N'
p2732
I500
sS'DAL.N'
p2733
I1638
sS'MATW.O'
p2734
I2047
sS'CSX.O'
p2735
I3311
sS'CSX.N'
p2736
I350
sS'MED.N'
p2737
I2254
sS'POST.N'
p2738
I2629
sS'EQ.N'
p2739
I464
sS'TI.N'
p2740
I1544
sS'HOTT.O'
p2741
I2093
sS'BXP.N'
p2742
I222
sS'LUFK.O'
p2743
I2063
sS'OCAS.O'
p2744
I924
sS'ES.N'
p2745
I3167
sS'SHO.N'
p2746
I1123
sS'MRO.N'
p2747
I842
sS'IONS.O'
p2748
I3312
sS'BETR.N'
p2749
I3347
sS'OLED.O'
p2750
I2843
sS'MRB.A'
p2751
I1916
sS'AROC.N'
p2752
I3289
sS'CTXS.O'
p2753
I359
sS'CINF.O'
p2754
I282
sS'SPXC.N'
p2755
I3354
sS'GLS.N'
p2756
I546
sS'RTIX.O'
p2757
I1933
sS'TM.N'
p2758
I1239
sS'XONE.O'
p2759
I2845
sS'THS.N'
p2760
I1915
sS'DEI.N'
p2761
I386
sS'MATK.O'
p2762
I793
sS'WAL.N'
p2763
I2170
sS'Z.O'
p2764
I2628
sS'GDI.N'
p2765
I535
sS'DRI.N'
p2766
I417
sS'LOW.N'
p2767
I766
sS'DELL.O'
p2768
I387
sS'APL.N'
p2769
I1868
sS'OMG.N'
p2770
I938
sS'VAC.N'
p2771
I2593
sS'WDR.N'
p2772
I1339
sS'CONE.O'
p2773
I3052
sS'COO.N'
p2774
I323
sS'SAH.N'
p2775
I1096
sS'CHIC.O'
p2776
I272
sS'TRIP.O'
p2777
I2605
sS'PTNR.O'
p2778
I1456
sS'QLYS.O'
p2779
I3091
sS'MGP.N'
p2780
I3369
sS'UMBF.O'
p2781
I1896
sS'SFXE.O'
p2782
I2919
sS'APH.N'
p2783
I93
sS'MSCI.N'
p2784
I2352
sS'FRG.A'
p2785
I2337
sS'APD.N'
p2786
I92
sS'TIME.N'
p2787
I3040
sS'BOT.N'
p2788
I199
sS'FIC.N'
p2789
I501
sS'VNO.N'
p2790
I1317
sS'EEP.N'
p2791
I1639
sS'PBA.N'
p2792
I3079
sS'ACHN.O'
p2793
I2600
sS'TNE.N'
p2794
I1244
sS'NAL.N'
p2795
I865
sS'ACTV.N'
p2796
I2591
sS'BSG.N'
p2797
I213
sS'TMUS.N'
p2798
I2825
sS'GMED.N'
p2799
I2803
sS'HBHC.O'
p2800
I1790
sS'MBI.N'
p2801
I794
sS'EGP.N'
p2802
I2060
sS'CKXE.O'
p2803
I1633
sS'CVG.N'
p2804
I364
sS'CSIQ.O'
p2805
I1858
sS'OMI.N'
p2806
I939
sS'TASR.O'
p2807
I1664
sS'CVE.N'
p2808
I2281
sS'CPNO.O'
p2809
I1720
sS'VARI.O'
p2810
I1567
sS'DEO.N'
p2811
I388
sS'REGN.O'
p2812
I1062
sS'OTEX.O'
p2813
I953
sS'PENN.O'
p2814
I980
sS'AVT.N'
p2815
I126
sS'HOLI.O'
p2816
I2475
sS'SODA.O'
p2817
I2424
sS'CAO.N'
p2818
I232
sS'GPN.N'
p2819
I559
sS'SONE.O'
p2820
I2097
sS'DLLR.O'
p2821
I2557
sS'RVBD.O'
p2822
I1088
sS'IAG.N'
p2823
I641
sS'MDLZ.O'
p2824
I2733
sS'ERJ.N'
p2825
I2437
sS'ROK.N'
p2826
I1077
sS'PPC.O'
p2827
I2770
sS'SBGL.N'
p2828
I2814
sS'MTDR.N'
p2829
I2859
sS'LYV.N'
p2830
I785
sS'MUR.N'
p2831
I857
sS'UL.N'
p2832
I1288
sS'RVI.N'
p2833
I1089
sS'GTLS.O'
p2834
I1791
sS'BLK.N'
p2835
I1415
sS'GIL.N'
p2836
I1416
sS'PSYS.O'
p2837
I1033
sS'UN.N'
p2838
I1289
sS'PSE.N'
p2839
I2257
sS'UB.N'
p2840
I1282
sS'DCOM.O'
p2841
I1928
sS'MUX.N'
p2842
I2623
sS'PSUN.O'
p2843
I1032
sS'CTRN.O'
p2844
I2154
sS'BRX.N'
p2845
I2941
sS'PACR.O'
p2846
I958
sS'XIDE.O'
p2847
I1862
sS'JBX.N'
p2848
I687
sS'LRY.N'
p2849
I771
sS'DHR.N'
p2850
I392
sS'PTRY.O'
p2851
I1036
sS'ARTG.O'
p2852
I1851
sS'AVP.N'
p2853
I125
sS'CAA.N'
p2854
I3284
sS'AJG.N'
p2855
I54
sS'VIAB.O'
p2856
I2580
sS'EQIX.O'
p2857
I465
sS'AFFY.O'
p2858
I2668
sS'GBCI.O'
p2859
I1714
sS'UNH.N'
p2860
I1291
sS'TRUE.O'
p2861
I3028
sS'TLMR.O'
p2862
I3176
sS'IFIN.O'
p2863
I650
sS'IFSIA.O'
p2864
I1515
sS'TUP.N'
p2865
I1271
sS'CTRX.O'
p2866
I2695
sS'PSA.N'
p2867
I1029
sS'BOL.N'
p2868
I198
sS'ANAD.O'
p2869
I1570
sS'SNDA.O'
p2870
I1152
sS'DRE.N'
p2871
I415
sS'ASR.N'
p2872
I2161
sS'HPT.O'
p2873
I3384
sS'HPT.N'
p2874
I619
sS'FFIV.O'
p2875
I499
sS'CAVM.O'
p2876
I2521
sS'KT.N'
p2877
I2274
sS'DMND.O'
p2878
I2081
sS'PSO.N'
p2879
I1735
sS'CMCM.N'
p2880
I3207
sS'NRZ.N'
p2881
I3096
sS'THE.N'
p2882
I1221
sS'SAF.N'
p2883
I1094
sS'ADVS.O'
p2884
I1623
sS'UGI.N'
p2885
I1286
sS'OA.N'
p2886
I3164
sS'KR.N'
p2887
I730
sS'PGH.N'
p2888
I2287
sS'SVVS.O'
p2889
I1189
sS'INCY.O'
p2890
I1792
sS'MHLD.O'
p2891
I2127
sS'MNR.N'
p2892
I3337
sS'SUG.N'
p2893
I1186
sS'ZEUS.O'
p2894
I1961
sS'NFBK.O'
p2895
I2793
sS'JMEI.N'
p2896
I3027
sS'JIVE.O'
p2897
I2625
sS'GIB.N'
p2898
I1722
sS'SUI.N'
p2899
I2607
sS'FIO.N'
p2900
I2528
sS'SAP.N'
p2901
I1097
sS'SOV.N'
p2902
I1163
sS'FFIN.O'
p2903
I3029
sS'TNK.N'
p2904
I2410
sS'DLM.N'
p2905
I400
sS'AFSI.O'
p2906
I1629
sS'EPD.N'
p2907
I462
sS'SHLD.O'
p2908
I1122
sS'WBSN.O'
p2909
I1334
sS'PGR.N'
p2910
I989
sS'TLLP.N'
p2911
I2940
sS'JOE.N'
p2912
I700
sS'CELG.O'
p2913
I258
sS'PPP.N'
p2914
I1024
sS'MSFT.O'
p2915
I847
sS'APWR.O'
p2916
I1983
sS'KOMG.O'
p2917
I728
sS'WW.N'
p2918
I1371
sS'JAS.N'
p2919
I1586
sS'COLM.O'
p2920
I321
sS'TX.N'
p2921
I1274
sS'CHAP.O'
p2922
I268
sS'WU.N'
p2923
I1370
sS'TXN.O'
p2924
I2596
sS'TXN.N'
p2925
I1276
sS'IDEV.O'
p2926
I1838
sS'CHFC.O'
p2927
I3334
sS'EWBC.O'
p2928
I478
sS'FTK.N'
p2929
I2595
sS'NETC.O'
p2930
I1533
sS'SHFL.O'
p2931
I2748
sS'ODSY.O'
p2932
I2092
sS'AMRN.O'
p2933
I2436
sS'PSTG.N'
p2934
I3360
sS'AXS.N'
p2935
I133
sS'PKY.N'
p2936
I2774
sS'STR.N'
p2937
I1182
sS'PXR.N'
p2938
I1449
sS'KGC.N'
p2939
I716
sS'MWV.N'
p2940
I861
sS'ANSS.O'
p2941
I1406
sS'BWLD.O'
p2942
I1641
sS'CBD.N'
p2943
I1524
sS'MRD.O'
p2944
I3050
sS'PUK.N'
p2945
I1856
sS'HLX.N'
p2946
I602
sS'HAWK.O'
p2947
I3210
sS'JCG.N'
p2948
I688
sS'CHTR.O'
p2949
I2513
sS'SIVB.O'
p2950
I1135
sS'OPSW.O'
p2951
I945
sS'MSCC.O'
p2952
I846
sS'GLYT.O'
p2953
I1713
sS'FNMA.OB'
p2954
I2818
sS'TRLG.O'
p2955
I1968
sS'FEYE.O'
p2956
I2915
sS'QTS.N'
p2957
I3211
sS'YNDX.O'
p2958
I2517
sS'NBIX.O'
p2959
I2603
sS'SAIA.O'
p2960
I2875
sS'ASPS.O'
p2961
I2736
sS'SXT.N'
p2962
I1492
sS'TEVA.N'
p2963
I2654
sS'TEVA.O'
p2964
I1217
sS'BLMN.O'
p2965
I2718
sS'IOC.N'
p2966
I2144
sS'RSE.N'
p2967
I2630
sS'PCTY.O'
p2968
I3208
sS'MENT.O'
p2969
I813
sS'JBL.N'
p2970
I685
sS'RLD.N'
p2971
I2398
sS'IOC.A'
p2972
I1808
sS'HET.N'
p2973
I592
sS'USB.N'
p2974
I1300
sS'WPC.N'
p2975
I2734
sS'ACAT.O'
p2976
I2651
sS'CSCO.O'
p2977
I346
sS'SBAC.O'
p2978
I1100
sS'DERM.O'
p2979
I3368
sS'CPX.N'
p2980
I332
sS'GWB.N'
p2981
I3297
sS'SHAK.N'
p2982
I3200
sS'STN.N'
p2983
I1180
sS'SDA.N'
p2984
I1912
sS'CYS.N'
p2985
I2560
sS'RTI.N'
p2986
I1085
sS'IRWD.O'
p2987
I2524
sS'BBEP.O'
p2988
I2032
sS'NUS.N'
p2989
I1474
sS'AGI.N'
p2990
I2956
sS'LPT.N'
p2991
I2974
sS'MMYT.O'
p2992
I2385
sS'MOH.N'
p2993
I1413
sS'TSO.N'
p2994
I1263
sS'KWK.N'
p2995
I738
sS'G.N'
p2996
I1736
sS'VZ.N'
p2997
I1328
sS'AGO.N'
p2998
I1557
sS'NFLX.O'
p2999
I877
sS'MOD.N'
p3000
I1692
sS'HYSL.O'
p3001
I640
sS'ORAN.N'
p3002
I2867
sS'PXP.N'
p3003
I1041
sS'TRAD.O'
p3004
I1850
sS'SUSS.N'
p3005
I2789
sS'SUSS.O'
p3006
I2699
sS'STT.N'
p3007
I1183
sS'NYT.N'
p3008
I922
sS'LPL.N'
p3009
I767
sS'HCN.N'
p3010
I3282
sS'GOOGL.O'
p3011
I3287
sS'WBMD.O'
p3012
I2271
sS'NUE.N'
p3013
I910
sS'FCSX.O'
p3014
I1589
sS'BLC.N'
p3015
I183
sS'AMX.N'
p3016
I81
sS'ULTI.O'
p3017
I1880
sS'WM.N'
p3018
I1351
sS'MXL.N'
p3019
I3294
sS'FLEX.O'
p3020
I507
sS'MV.N'
p3021
I1825
sS'CHA.N'
p3022
I1757
sS'MPEL.O'
p3023
I1411
sS'PDCE.O'
p3024
I2685
sS'UIS.N'
p3025
I2246
sS'DOC.N'
p3026
I3142
sS'ENL.N'
p3027
I2117
sS'HNP.N'
p3028
I1585
sS'MLHR.O'
p3029
I827
sS'KRO.N'
p3030
I2496
sS'MKSI.O'
p3031
I826
sS'JH.N'
p3032
I693
sS'ENN.N'
p3033
I458
sS'KMT.N'
p3034
I723
sS'SYRG.A'
p3035
I2904
sS'ZOLL.O'
p3036
I1937
sS'EROS.N'
p3037
I3244
sS'ORI.N'
p3038
I949
sS'KLAC.O'
p3039
I719
sS'PGRE.N'
p3040
I3132
sS'EDS.N'
p3041
I439
sS'WY.N'
p3042
I1374
sS'APOL.O'
p3043
I95
sS'ENH.N'
p3044
I457
sS'FDG.N'
p3045
I1910
sS'BJS.N'
p3046
I178
sS'ILA.N'
p3047
I653
sS'TEF.N'
p3048
I1212
sS'FCPT.N'
p3049
I3314
sS'COP.N'
p3050
I324
sS'ALDR.O'
p3051
I3147
sS'NVAX.O'
p3052
I2213
sS'SLCA.N'
p3053
I2635
sS'GTW.N'
p3054
I571
sS'CRR.N'
p3055
I342
sS'ATML.O'
p3056
I112
sS'TSM.N'
p3057
I1261
sS'TER.N'
p3058
I1216
sS'ORA.N'
p3059
I1521
sS'TXRH.O'
p3060
I1277
sS'NYX.N'
p3061
I1967
sS'FDO.N'
p3062
I493
sS'CPB.N'
p3063
I328
sS'PES.N'
p3064
I2703
sS'MTG.N'
p3065
I852
sS'TD.N'
p3066
I1718
sS'TXT.N'
p3067
I1278
sS'PCS.N'
p3068
I1631
sS'OVTI.O'
p3069
I954
sS'UDR.N'
p3070
I1572
sS'SXL.N'
p3071
I2126
sS'ZTS.N'
p3072
I2809
sS'UNVR.N'
p3073
I3272
sS'RDSa.N'
p3074
I1057
sS'MMP.N'
p3075
I1731
sS'CMVT.O'
p3076
I2555
sS'CHKP.O'
p3077
I1535
sS'ALKS.O'
p3078
I2564
sS'CBL.N'
p3079
I239
sS'NXG.A'
p3080
I918
sS'NCR.N'
p3081
I871
sS'PWRD.O'
p3082
I1732
sS'FUN.N'
p3083
I1836
sS'CPL.N'
p3084
I1994
sS'HMN.N'
p3085
I607
sS'KMP.N'
p3086
I722
sS'SVN.N'
p3087
I2282
sS'BCC.N'
p3088
I2848
sS'BIP.N'
p3089
I1899
sS'UNS.N'
p3090
I2667
sS'APC.N'
p3091
I91
sS'ENB.N'
p3092
I1651
sS'VIAV.O'
p3093
I3255
sS'GME.N'
p3094
I549
sS'CPT.N'
p3095
I330
sS'BUFF.O'
p3096
I3260
sS'PCG.N'
p3097
I969
sS'SRPT.O'
p3098
I2744
sS'APA.N'
p3099
I90
sS'GTI.N'
p3100
I569
sS'HGSI.O'
p3101
I594
sS'ARG.N'
p3102
I100
sS'CAMP.O'
p3103
I2914
sS'POR.N'
p3104
I1466
sS'ARA.N'
p3105
I1872
sS'CMP.N'
p3106
I301
sS'BRKS.O'
p3107
I207
sS'APO.N'
p3108
I2484
sS'GTE.A'
p3109
I1963
sS'SWFT.N'
p3110
I2450
sS'SWFT.O'
p3111
I1191
sS'NXPI.O'
p3112
I2382
sS'CSOD.O'
p3113
I2627
sS'CNA.N'
p3114
I304
sS'COR.N'
p3115
I2731
sS'TJX.N'
p3116
I1230
sS'NCMI.O'
p3117
I1532
sS'TNGO.O'
p3118
I2624
sS'PAG.N'
p3119
I1678
sS'FDC.N'
p3120
I492
sS'CHU.N'
p3121
I277
sS'VTR.N'
p3122
I1326
sS'SQ.N'
p3123
I3397
sS'ISPH.O'
p3124
I2210
sS'KOF.N'
p3125
I1998
sS'BIOS.O'
p3126
I2722
sS'BCE.N'
p3127
I148
sS'INGN.O'
p3128
I3251
sS'STZ.N'
p3129
I1185
sS'KYPH.O'
p3130
I739
sS'AGU.N'
p3131
I42
sS'ERIC.O'
p3132
I468
sS'RRGB.O'
p3133
I1543
sS'ICPT.O'
p3134
I2957
sS'MDSO.O'
p3135
I2197
sS'BSFT.O'
p3136
I2427
sS'SWSI.O'
p3137
I2022
sS'TSU.N'
p3138
I1264
sS'HRTX.O'
p3139
I3224
sS'KMB.N'
p3140
I720
sS'BT.N'
p3141
I215
sS'ISLE.O'
p3142
I674
sS'LITE.O'
p3143
I3263
sS'ORCL.N'
p3144
I2977
sS'UE.N'
p3145
I3160
sS'ADT.N'
p3146
I2742
sS'EPR.N'
p3147
I2759
sS'PEI.N'
p3148
I979
sS'TRST.O'
p3149
I1450
sS'BV.O'
p3150
I2698
sS'MOLXA.O'
p3151
I1403
sS'VOYA.N'
p3152
I3004
sS'EXEL.O'
p3153
I480
sS'NVS.N'
p3154
I913
sS'BCS.N'
p3155
I151
sS'ARXX.O'
p3156
I103
sS'GXP.N'
p3157
I576
sS'FLT.N'
p3158
I2626
sS'SKM.N'
p3159
I1138
sS'LLTC.O'
p3160
I759
sS'ZUMZ.O'
p3161
I1393
sS'AR.N'
p3162
I2920
sS'CNS.N'
p3163
I312
sS'WSM.N'
p3164
I1363
sS'BKMU.O'
p3165
I1563
sS'ROST.O'
p3166
I1079
sS'VRX.N'
p3167
I1323
sS'EAT.N'
p3168
I433
sS'HLF.N'
p3169
I600
sS'FOLD.O'
p3170
I3138
sS'BLUE.O'
p3171
I3045
sS'WSO.N'
p3172
I1364
sS'CNE.N'
p3173
I306
sS'LDRH.O'
p3174
I3249
sS'UPS.N'
p3175
I1296
sS'FET.N'
p3176
I2655
sS'CZZ.N'
p3177
I1754
sS'HBC.N'
p3178
I584
sS'RIO.N'
p3179
I2392
sS'CRH.N'
p3180
I2023
sS'HYH.N'
p3181
I3106
sS'DBD.N'
p3182
I380
sS'ADP.N'
p3183
I21
sS'ADP.O'
p3184
I2044
sS'SWHC.O'
p3185
I1684
sS'COH.N'
p3186
I319
sS'AG.N'
p3187
I39
sS'OGS.N'
p3188
I2979
sS'SSW.N'
p3189
I1447
sS'APU.N'
p3190
I2130
sS'UVE.N'
p3191
I3158
sS'HSBC.N'
p3192
I2917
sS'PEG.N'
p3193
I978
sS'KLXI.O'
p3194
I3143
sS'BR.N'
p3195
I1595
sS'CLDX.O'
p3196
I2806
sS'FE.N'
p3197
I497
sS'OSTK.O'
p3198
I1781
sS'PLLL.O'
p3199
I1004
sS'XHR.N'
p3200
I3171
sS'AONE.O'
p3201
I2236
sS'ABAX.O'
p3202
I1865
sS'STL.N'
p3203
I2933
sS'SAAS.O'
p3204
I3373
sS'DRIV.O'
p3205
I418
sS'RGLS.O'
p3206
I3105
sS'COHR.O'
p3207
I1853
sS'NVCR.O'
p3208
I3321
sS'HOT.N'
p3209
I615
sS'KW.N'
p3210
I2693
sS'H.N'
p3211
I579
sS'AEGR.O'
p3212
I2756
sS'ZBH.N'
p3213
I3212
sS'ATHM.N'
p3214
I3064
sS'BTI.A'
p3215
I1869
sS'WDC.O'
p3216
I2662
sS'WDC.N'
p3217
I1338
sS'PFGC.N'
p3218
I3372
sS'HTLD.O'
p3219
I629
sS'BRY.N'
p3220
I211
sS'CCI.N'
p3221
I3135
sS'LAYN.O'
p3222
I1971
sS'MIG.N'
p3223
I2142
sS'AMED.O'
p3224
I72
sS'IN.N'
p3225
I657
sS'CASY.O'
p3226
I1659
sS'VER.N'
p3227
I3252
sS'LB.N'
p3228
I2922
sS'AFR.N'
p3229
I38
sS'HWAY.O'
p3230
I636
sS'CAAS.O'
p3231
I2265
sS'RCII.O'
p3232
I1053
sS'PG.N'
p3233
I987
sS'FNGN.O'
p3234
I2388
sS'TCB.N'
p3235
I1207
sS'OFC.N'
p3236
I929
sS'AMMD.O'
p3237
I77
sS'FNSR.O'
p3238
I2228
sS'FMER.O'
p3239
I515
sS'MKC.N'
p3240
I825
sS'JCOM.O'
p3241
I2599
sS'FCN.N'
p3242
I489
sS'INOV.O'
p3243
I3309
sS'BRE.N'
p3244
I205
sS'COMS.O'
p3245
I322
sS'WAB.N'
p3246
I1329
sS'ANV.A'
p3247
I2219
sS'FIRE.O'
p3248
I2165
sS'GT.O'
p3249
I2764
sS'GT.N'
p3250
I568
sS'ASPV.O'
p3251
I1476
sS'CMED.O'
p3252
I298
sS'FCH.N'
p3253
I487
sS'RHB.N'
p3254
I2263
sS'JPM.N'
p3255
I701
sS'WGL.N'
p3256
I1345
sS'LMCK.O'
p3257
I3090
sS'KEX.N'
p3258
I711
sS'SYF.N'
p3259
I3071
sS'INSY.O'
p3260
I2990
sS'BZ.N'
p3261
I2220
sS'CLNY.N'
p3262
I2489
sS'MAA.N'
p3263
I1417
sS'ESC.N'
p3264
I2543
sS'BTE.N'
p3265
I2286
sS'BTG.A'
p3266
I2858
sS'AMTD.N'
p3267
I2641
sS'AMTD.O'
p3268
I80
sS'ECPG.O'
p3269
I2772
sS'WRB.N'
p3270
I1925
sS'CEN.N'
p3271
I259
sS'GRMN.O'
p3272
I2359
sS'CEPH.O'
p3273
I262
sS'GB.N'
p3274
I1635
sS'MDP.N'
p3275
I805
sS'KEP.N'
p3276
I710
sS'WETF.O'
p3277
I2559
sS'VOD.O'
p3278
I2985
sS'ADCT.O'
p3279
I18
sS'AU.N'
p3280
I118
sS'APOG.O'
p3281
I1674
sS'CPHD.O'
p3282
I1599
sS'BURL.N'
p3283
I3012
sS'LIN.N'
p3284
I2916
sS'CNK.N'
p3285
I1668
sS'DEPO.O'
p3286
I2988
sS'PHH.N'
p3287
I992
sS'CNI.N'
p3288
I308
sS'KO.N'
p3289
I727
sS'ITC.N'
p3290
I1438
sS'DEXO.N'
p3291
I2310
sS'ENDP.O'
p3292
I2989
sS'CTLT.N'
p3293
I3070
sS'BABA.N'
p3294
I3083
sS'FCL.N'
p3295
I488
sS'CDE.N'
p3296
I2178
sS'LZ.N'
p3297
I786
sS'SCRX.O'
p3298
I1110
sS'TMHC.N'
p3299
I2834
sS'PMTC.O'
p3300
I2795
sS'GPRO.O'
p3301
I3060
sS'TCL.N'
p3302
I1995
sS'ZINC.O'
p3303
I1774
sS'SPWRB.O'
p3304
I2061
sS'RESP.O'
p3305
I1603
sS'XEL.N'
p3306
I1379
sS'STI.N'
p3307
I1176
sS'MO.N'
p3308
I834
sS'DFS.N'
p3309
I1682
sS'KAMN.O'
p3310
I2558
sS'LPI.N'
p3311
I2642
sS'PLUG.O'
p3312
I3001
sS'CC.N'
p3313
I244
sS'MA.N'
p3314
I787
sS'ZSPH.O'
p3315
I3185
sS'BYD.N'
p3316
I223
sS'UIL.N'
p3317
I2173
sS'CA.N'
p3318
I224
sS'CA.O'
p3319
I1932
sS'CBSS.O'
p3320
I241
sS'BLD.N'
p3321
I3240
sS'GFF.N'
p3322
I1465
sS'SCG.N'
p3323
I1105
sS'KLIC.O'
p3324
I2209
sS'ANTM.N'
p3325
I3125
sS'UTIW.O'
p3326
I1306
sS'FOSL.O'
p3327
I2853
sS'OWW.N'
p3328
I1724
sS'IIVI.O'
p3329
I1935
sS'PDLI.O'
p3330
I977
sS'TPX.N'
p3331
I1248
sS'ALLY.N'
p3332
I3011
sS'CEL.N'
p3333
I2272
sS'FLOW.N'
p3334
I3279
sS'SBRA.O'
p3335
I2405
sS'WAGE.N'
p3336
I2860
sS'CY.N'
p3337
I371
sS'CY.O'
p3338
I2238
sS'TRMK.O'
p3339
I1695
sS'FCF.N'
p3340
I1435
sS'AMCX.O'
p3341
I2533
sS'JNS.N'
p3342
I699
sS'SLB.N'
p3343
I1143
sS'BRS.N'
p3344
I210
sS'ATN.N'
p3345
I1901
sS'ACH.N'
p3346
I12
sS'MAS.N'
p3347
I791
sS'NST.N'
p3348
I903
sS'GSOL.O'
p3349
I1789
sS'TIa.N'
p3350
I2036
sS'MM.N'
p3351
I2660
sS'CLI.N'
p3352
I290
sS'WBA.O'
p3353
I3123
sS'TLVT.O'
p3354
I2233
sS'EFX.N'
p3355
I445
sS'ACF.N'
p3356
I11
sS'MGNX.O'
p3357
I3130
sS'HUBG.O'
p3358
I631
sS'ZMH.N'
p3359
I1390
sS'CIS.N'
p3360
I2433
sS'ENIA.N'
p3361
I3364
sS'VECO.O'
p3362
I1909
sS'MCY.N'
p3363
I1903
sS'LZB.N'
p3364
I1421
sS'USPI.O'
p3365
I1302
sS'MSM.N'
p3366
I848
sS'SYT.N'
p3367
I1404
sS'HE.N'
p3368
I1525
sS'ENIC.N'
p3369
I3370
sS'ODP.N'
p3370
I928
sS'SNR.N'
p3371
I3100
sS'XNCR.O'
p3372
I3396
sS'VSAT.O'
p3373
I1881
sS'RSPP.N'
p3374
I2998
sS'MY.N'
p3375
I2407
sS'HC.N'
p3376
I586
sS'WAT.N'
p3377
I1331
sS'CBRL.O'
p3378
I2108
sS'T.N'
p3379
I1203
sS'STP.N'
p3380
I1181
sS'TWB.N'
p3381
I1273
sS'BAH.N'
p3382
I2516
sS'EQR.N'
p3383
I466
sS'PCRX.O'
p3384
I2691
sS'CPE.N'
p3385
I3349
sS'HME.N'
p3386
I606
sS'LTC.N'
p3387
I2121
sS'PPL.N'
p3388
I1023
sS'CPG.N'
p3389
I3201
sS'SCI.N'
p3390
I1109
sS'ALTH.O'
p3391
I1982
sS'AVIV.N'
p3392
I2826
sS'TAHO.N'
p3393
I3168
sS'AOS.N'
p3394
I89
sS'TKS.N'
p3395
I1738
sS'STE.N'
p3396
I3302
sS'ANN.N'
p3397
I2469
sS'OPHT.O'
p3398
I3018
sS'MSI.N'
p3399
I2446
sS'SID.N'
p3400
I1128
sS'WBS.N'
p3401
I1333
s.