(dp0
S'SCS.N'
p1
I1091
sS'ALTR.O'
p2
I64
sS'PLXS.O'
p3
I988
sS'BGP.N'
p4
I166
sS'AAP.N'
p5
I2
sS'RGC.N'
p6
I1046
sS'UTHR.O'
p7
I1278
sS'LAZ.N'
p8
I724
sS'MS.N'
p9
I828
sS'RKT.N'
p10
I1052
sS'MU.N'
p11
I838
sS'AYE.N'
p12
I132
sS'WIT.N'
p13
I1322
sS'MW.N'
p14
I841
sS'NDAQ.O'
p15
I854
sS'SKX.N'
p16
I1119
sS'SKYW.O'
p17
I1120
sS'CW.N'
p18
I1431
sS'NTY.N'
p19
I890
sS'GENZ.O'
p20
I523
sS'LVS.N'
p21
I763
sS'KBR.N'
p22
I689
sS'D.N'
p23
I364
sS'ALL.N'
p24
I61
sS'RE.N'
p25
I1040
sS'SNH.N'
p26
I1134
sS'EXP.N'
p27
I466
sS'ODFL.O'
p28
I909
sS'CIG.N'
p29
I272
sS'EMR.N'
p30
I443
sS'LNC.N'
p31
I746
sS'CUZ.N'
p32
I348
sS'URBN.O'
p33
I1271
sS'ZQK.N'
p34
I1365
sS'EXPD.O'
p35
I467
sS'ANR.N'
p36
I85
sS'NCC.N'
p37
I850
sS'PWR.N'
p38
I1019
sS'MFC.N'
p39
I799
sS'TRA.N'
p40
I1226
sS'SIL.A'
p41
I1110
sS'SJM.N'
p42
I1115
sS'ZRAN.O'
p43
I1366
sS'CSH.N'
p44
I337
sS'JEF.N'
p45
I675
sS'SNA.N'
p46
I1130
sS'BKS.N'
p47
I179
sS'LTM.N'
p48
I759
sS'EMN.N'
p49
I442
sS'DLB.N'
p50
I386
sS'AFL.N'
p51
I36
sS'CPS.N'
p52
I318
sS'VLO.N'
p53
I1288
sS'LFB.N'
p54
I733
sS'CLB.N'
p55
I278
sS'GWW.N'
p56
I560
sS'FCS.N'
p57
I475
sS'FRK.N'
p58
I507
sS'AIZ.N'
p59
I52
sS'CRUS.O'
p60
I1379
sS'SKT.N'
p61
I1372
sS'BVN.N'
p62
I211
sS'BBY.N'
p63
I144
sS'DLX.N'
p64
I390
sS'GSIC.O'
p65
I550
sS'DVA.N'
p66
I412
sS'EAS.N'
p67
I419
sS'SNE.N'
p68
I1133
sS'ID.N'
p69
I631
sS'AIR.N'
p70
I49
sS'RMD.N'
p71
I1054
sS'AKR.N'
p72
I55
sS'PBG.N'
p73
I945
sS'PYX.N'
p74
I1023
sS'IRF.N'
p75
I655
sS'ALB.N'
p76
I57
sS'CERN.O'
p77
I254
sS'SFD.N'
p78
I1098
sS'SSD.N'
p79
I1151
sS'RFMD.O'
p80
I1045
sS'WRI.N'
p81
I1336
sS'DOW.N'
p82
I396
sS'AVX.N'
p83
I125
sS'CAI.N'
p84
I220
sS'GLW.N'
p85
I533
sS'HON.N'
p86
I598
sS'DECK.O'
p87
I1423
sS'AKAM.O'
p88
I54
sS'LII.N'
p89
I740
sS'TOT.N'
p90
I1223
sS'MIR.N'
p91
I807
sS'TCK.N'
p92
I1444
sS'CAM.N'
p93
I223
sS'MEL.N'
p94
I795
sS'WRE.N'
p95
I1335
sS'BSC.N'
p96
I206
sS'SCHN.O'
p97
I1087
sS'IWOV.O'
p98
I665
sS'WTW.N'
p99
I1343
sS'FLML.O'
p100
I494
sS'CVC.N'
p101
I350
sS'WTS.N'
p102
I1342
sS'RARE.O'
p103
I1437
sS'PDE.N'
p104
I958
sS'CVA.N'
p105
I349
sS'POOL.O'
p106
I999
sS'RHI.N'
p107
I1049
sS'ALGN.O'
p108
I59
sS'SLG.N'
p109
I1123
sS'PBI.N'
p110
I946
sS'ACTS.O'
p111
I15
sS'YHOO.O'
p112
I1358
sS'CCU.N'
p113
I241
sS'UST.N'
p114
I1277
sS'E.N'
p115
I416
sS'SCHL.O'
p116
I1086
sS'SIRF.O'
p117
I1113
sS'KFN.N'
p118
I696
sS'HLYS.O'
p119
I588
sS'FNB.N'
p120
I502
sS'CAG.N'
p121
I218
sS'WOOF.O'
p122
I1332
sS'MER.N'
p123
I797
sS'CHTT.O'
p124
I1436
sS'AHG.N'
p125
I43
sS'MET.N'
p126
I798
sS'KSS.N'
p127
I717
sS'OLN.N'
p128
I918
sS'SONC.O'
p129
I1141
sS'KSU.N'
p130
I718
sS'AVB.N'
p131
I121
sS'FOE.N'
p132
I504
sS'MRVL.O'
p133
I826
sS'CLX.N'
p134
I284
sS'THO.N'
p135
I1199
sS'HAR.N'
p136
I566
sS'KCI.N'
p137
I690
sS'RG.N'
p138
I1387
sS'HBI.N'
p139
I570
sS'PDCO.O'
p140
I957
sS'MCCC.O'
p141
I779
sS'LNCR.O'
p142
I747
sS'GRT.N'
p143
I1380
sS'CNET.O'
p144
I297
sS'CTRP.O'
p145
I343
sS'AINV.O'
p146
I48
sS'IPCR.O'
p147
I651
sS'RX.N'
p148
I1070
sS'APKT.O'
p149
I92
sS'CIB.N'
p150
I270
sS'F.N'
p151
I470
sS'OII.N'
p152
I915
sS'WTI.N'
p153
I1340
sS'NAVZ.OQ'
p154
I1398
sS'AMZN.O'
p155
I80
sS'ITMN.O'
p156
I662
sS'NVT.N'
p157
I896
sS'PLAB.O'
p158
I982
sS'GRP.N'
p159
I548
sS'LTR.N'
p160
I760
sS'PRX.N'
p161
I1009
sS'NVL.N'
p162
I894
sS'NI.N'
p163
I864
sS'AHS.N'
p164
I45
sS'SPIL.O'
p165
I1144
sS'BGG.N'
p166
I165
sS'GTRC.O'
p167
I555
sS'WCG.N'
p168
I1310
sS'TV.N'
p169
I1247
sS'DO.N'
p170
I394
sS'ASX.N'
p171
I1445
sS'SNDK.O'
p172
I1132
sS'HNZ.N'
p173
I595
sS'SY.N'
p174
I1175
sS'DG.N'
p175
I376
sS'ERTS.O'
p176
I456
sS'WYN.N'
p177
I1349
sS'VVC.N'
p178
I1301
sS'CBH.N'
p179
I228
sS'AXE.N'
p180
I128
sS'NOV.N'
p181
I877
sS'TGT.N'
p182
I1197
sS'ABB.N'
p183
I4
sS'KIM.N'
p184
I700
sS'HBAN.O'
p185
I568
sS'JBLU.O'
p186
I669
sS'WMS.N'
p187
I1329
sS'CHK.N'
p188
I264
sS'UNFI.O'
p189
I1264
sS'SO.N'
p190
I1138
sS'POT.N'
p191
I1001
sS'IRC.N'
p192
I654
sS'RYN.N'
p193
I1073
sS'CHE.N'
p194
I261
sS'BGC.N'
p195
I164
sS'FLIR.O'
p196
I493
sS'CHS.N'
p197
I267
sS'DAKT.O'
p198
I366
sS'TIF.N'
p199
I1204
sS'WCC.N'
p200
I1309
sS'FTO.N'
p201
I512
sS'GLT.N'
p202
I532
sS'FTI.N'
p203
I511
sS'ASN.N'
p204
I105
sS'PMCS.O'
p205
I989
sS'FISV.O'
p206
I489
sS'CBT.N'
p207
I235
sS'RSH.N'
p208
I1064
sS'FDS.N'
p209
I480
sS'RRC.N'
p210
I1061
sS'ED.N'
p211
I425
sS'BDN.N'
p212
I152
sS'SPR.N'
p213
I1147
sS'PETM.O'
p214
I965
sS'SAFM.O'
p215
I1075
sS'ARXT.O'
p216
I100
sS'HUM.N'
p217
I618
sS'NG.A'
p218
I862
sS'OI.N'
p219
I914
sS'RYL.N'
p220
I1072
sS'IM.N'
p221
I640
sS'AGE.N'
p222
I39
sS'BHI.N'
p223
I168
sS'HLS.N'
p224
I1406
sS'SWS.N'
p225
I1173
sS'PBR.N'
p226
I947
sS'ISIL.O'
p227
I657
sS'COF.N'
p228
I305
sS'RDY.N'
p229
I1039
sS'BHS.N'
p230
I170
sS'IFS.N'
p231
I636
sS'BLL.N'
p232
I181
sS'TSS.N'
p233
I1396
sS'SYY.N'
p234
I1180
sS'USIH.O'
p235
I1397
sS'RJF.N'
p236
I1051
sS'GYI.N'
p237
I562
sS'TEN.N'
p238
I1191
sS'NYB.N'
p239
I903
sS'AW.N'
p240
I127
sS'TNB.N'
p241
I1219
sS'CTX.N'
p242
I346
sS'R.N'
p243
I1029
sS'MYGN.O'
p244
I845
sS'ABT.N'
p245
I8
sS'AES.N'
p246
I31
sS'HRH.N'
p247
I1449
sS'MPG.N'
p248
I820
sS'CAT.N'
p249
I226
sS'SPLS.O'
p250
I1145
sS'TEX.N'
p251
I1195
sS'B.N'
p252
I136
sS'DADE.O'
p253
I365
sS'SMI.N'
p254
I1127
sS'EL.N'
p255
I435
sS'DRH.N'
p256
I403
sS'AEE.N'
p257
I26
sS'ARCC.O'
p258
I96
sS'RCL.N'
p259
I1034
sS'GPC.N'
p260
I542
sS'COL.N'
p261
I310
sS'VSEA.O'
p262
I1298
sS'GOLD.O'
p263
I541
sS'KG.N'
p264
I698
sS'CRL.N'
p265
I327
sS'NRPH.O'
p266
I880
sS'EV.N'
p267
I462
sS'GVA.N'
p268
I557
sS'BBV.N'
p269
I143
sS'MPS.N'
p270
I821
sS'TZIX.O'
p271
I1255
sS'BBT.N'
p272
I142
sS'DNA.N'
p273
I391
sS'CTV.N'
p274
I345
sS'BOW.N'
p275
I195
sS'OGE.N'
p276
I912
sS'BDX.N'
p277
I153
sS'BHE.N'
p278
I167
sS'NTES.O'
p279
I886
sS'RHT.N'
p280
I1050
sS'MGA.N'
p281
I801
sS'EIG.N'
p282
I1450
sS'TMK.N'
p283
I1216
sS'ITG.N'
p284
I661
sS'NTRS.O'
p285
I889
sS'COCO.O'
p286
I304
sS'LKQX.O'
p287
I741
sS'ADTN.O'
p288
I24
sS'BAK.N'
p289
I1369
sS'NKE.N'
p290
I867
sS'ELP.N'
p291
I437
sS'LHO.N'
p292
I737
sS'SMG.N'
p293
I1126
sS'WITS.O'
p294
I1374
sS'NFP.N'
p295
I859
sS'AMKR.O'
p296
I73
sS'FWRD.O'
p297
I514
sS'UNM.N'
p298
I1266
sS'SPN.N'
p299
I1146
sS'SKIL.O'
p300
I1116
sS'DHI.N'
p301
I378
sS'CAB.N'
p302
I217
sS'THX.N'
p303
I1201
sS'QMAR.O'
p304
I1422
sS'RGLD.O'
p305
I1047
sS'ZLC.N'
p306
I1363
sS'RAD.N'
p307
I1030
sS'BRC.N'
p308
I197
sS'PGI.N'
p309
I970
sS'GR.N'
p310
I546
sS'HCC.N'
p311
I573
sS'GD.N'
p312
I519
sS'OHI.N'
p313
I913
sS'VMC.N'
p314
I1290
sS'VAL.N'
p315
I1282
sS'WNR.N'
p316
I1331
sS'MGM.N'
p317
I803
sS'SBS.N'
p318
I1083
sS'TRYb.N'
p319
I1233
sS'FLO.N'
p320
I495
sS'HEW.N'
p321
I578
sS'SMOD.O'
p322
I1128
sS'TEO.N'
p323
I1192
sS'KRY.A'
p324
I715
sS'LPNT.O'
p325
I751
sS'TEK.N'
p326
I1190
sS'GAS.N'
p327
I516
sS'ISIS.O'
p328
I658
sS'CRZO.O'
p329
I332
sS'LUV.N'
p330
I762
sS'BRO.N'
p331
I203
sS'GHL.N'
p332
I1394
sS'FAST.O'
p333
I471
sS'HIMX.O'
p334
I582
sS'FLS.N'
p335
I497
sS'OSIP.O'
p336
I933
sS'LYO.N'
p337
I767
sS'AOC.N'
p338
I86
sS'TKC.N'
p339
I1208
sS'ONXX.O'
p340
I1451
sS'BBBY.O'
p341
I140
sS'NDN.N'
p342
I855
sS'LEN.N'
p343
I732
sS'GGG.N'
p344
I527
sS'TG.N'
p345
I1196
sS'ZION.O'
p346
I1362
sS'HMC.N'
p347
I590
sS'NUAN.O'
p348
I891
sS'CYT.N'
p349
I362
sS'WLK.N'
p350
I1324
sS'STM.N'
p351
I1158
sS'SIAL.O'
p352
I1106
sS'IDA.N'
p353
I632
sS'AZN.N'
p354
I134
sS'KRC.N'
p355
I714
sS'RAH.N'
p356
I1432
sS'AGN.N'
p357
I40
sS'VRTX.O'
p358
I1296
sS'BIG.N'
p359
I173
sS'USG.N'
p360
I1275
sS'WYNN.O'
p361
I1350
sS'VMED.O'
p362
I1435
sS'AMT.N'
p363
I77
sS'LCAV.O'
p364
I725
sS'DCEL.O'
p365
I368
sS'NRG.N'
p366
I879
sS'MLNM.O'
p367
I813
sS'NFX.N'
p368
I861
sS'SGMS.O'
p369
I1101
sS'RTP.N'
p370
I1067
sS'MDCO.O'
p371
I787
sS'HMA.N'
p372
I589
sS'SVM.N'
p373
I1167
sS'SNP.N'
p374
I1135
sS'PHRM.O'
p375
I976
sS'ISE.N'
p376
I656
sS'BWS.N'
p377
I213
sS'AME.N'
p378
I70
sS'JNC.N'
p379
I679
sS'AMG.N'
p380
I71
sS'CRS.N'
p381
I331
sS'EAC.N'
p382
I417
sS'TEG.N'
p383
I1457
sS'SIMO.O'
p384
I1456
sS'MAC.N'
p385
I771
sS'LIFC.O'
p386
I739
sS'ATRS.O'
p387
I113
sS'EFD.N'
p388
I430
sS'CPA.N'
p389
I316
sS'ZBRA.O'
p390
I1360
sS'KWD.N'
p391
I720
sS'ADSK.O'
p392
I23
sS'EFII.O'
p393
I431
sS'ALD.N'
p394
I58
sS'UEPS.O'
p395
I1259
sS'PMI.N'
p396
I990
sS'MTZ.N'
p397
I837
sS'IDTI.O'
p398
I633
sS'O.N'
p399
I905
sS'LAUR.O'
p400
I723
sS'GFIG.O'
p401
I1455
sS'BEZ.N'
p402
I161
sS'KPA.N'
p403
I712
sS'HCBK.O'
p404
I572
sS'BIIB.O'
p405
I174
sS'POS.N'
p406
I1000
sS'CMI.N'
p407
I290
sS'AFG.N'
p408
I35
sS'CROX.O'
p409
I329
sS'AYI.N'
p410
I133
sS'PAYX.O'
p411
I944
sS'CMC.N'
p412
I286
sS'DLR.N'
p413
I389
sS'APPB.O'
p414
I94
sS'CMA.N'
p415
I285
sS'DLP.N'
p416
I388
sS'MVL.N'
p417
I840
sS'ONNN.O'
p418
I925
sS'CYH.N'
p419
I359
sS'CMG.N'
p420
I289
sS'PSD.N'
p421
I1011
sS'AEIS.O'
p422
I28
sS'SAPE.O'
p423
I1078
sS'RWT.N'
p424
I1442
sS'UPL.A'
p425
I1269
sS'WR.N'
p426
I1334
sS'AIN.N'
p427
I47
sS'NCI.N'
p428
I851
sS'ARD.N'
p429
I1453
sS'BID.N'
p430
I171
sS'ETR.N'
p431
I461
sS'FR.N'
p432
I506
sS'MTN.N'
p433
I836
sS'KMI.N'
p434
I704
sS'ALV.N'
p435
I66
sS'RES.N'
p436
I1043
sS'MFE.N'
p437
I800
sS'LMT.N'
p438
I745
sS'FDX.N'
p439
I481
sS'DNB.N'
p440
I392
sS'VIAb.N'
p441
I1287
sS'CRI.N'
p442
I326
sS'BEN.N'
p443
I159
sS'SEE.N'
p444
I1094
sS'FRPT.O'
p445
I1400
sS'REG.N'
p446
I1041
sS'CXG.N'
p447
I357
sS'GMR.N'
p448
I535
sS'LEAP.O'
p449
I729
sS'MEDX.O'
p450
I793
sS'BER.N'
p451
I160
sS'ADM.N'
p452
I20
sS'SLAB.O'
p453
I1121
sS'SLM.N'
p454
I1124
sS'XEC.N'
p455
I1352
sS'PH.N'
p456
I972
sS'AIT.N'
p457
I50
sS'AIV.N'
p458
I51
sS'BRKR.O'
p459
I1430
sS'TOL.N'
p460
I1222
sS'GNW.N'
p461
I540
sS'MCD.N'
p462
I780
sS'WST.N'
p463
I1339
sS'TTC.N'
p464
I1240
sS'ASH.N'
p465
I104
sS'SSL.N'
p466
I1153
sS'DIS.N'
p467
I382
sS'BC.N'
p468
I145
sS'UVV.N'
p469
I1433
sS'SBIB.O'
p470
I1082
sS'ESS.N'
p471
I1434
sS'SFL.N'
p472
I1100
sS'ARBA.O'
p473
I1416
sS'NSC.N'
p474
I881
sS'HOV.N'
p475
I601
sS'BK.N'
p476
I177
sS'BECN.O'
p477
I157
sS'ESE.N'
p478
I457
sS'NSM.N'
p479
I883
sS'TRW.N'
p480
I1232
sS'TCO.N'
p481
I1186
sS'ETH.N'
p482
I459
sS'CNP.N'
p483
I300
sS'NATI.O'
p484
I1424
sS'CCK.N'
p485
I238
sS'HL.N'
p486
I584
sS'GW.A'
p487
I558
sS'NNI.N'
p488
I873
sS'KNL.N'
p489
I1447
sS'KSE.N'
p490
I716
sS'CNL.N'
p491
I299
sS'CSGS.O'
p492
I336
sS'CBST.O'
p493
I234
sS'MHK.N'
p494
I804
sS'GSS.A'
p495
I552
sS'PFG.N'
p496
I968
sS'BG.N'
p497
I163
sS'CLP.N'
p498
I282
sS'ATI.N'
p499
I108
sS'TTM.N'
p500
I1243
sS'HR.N'
p501
I605
sS'TSFG.O'
p502
I1373
sS'MAR.N'
p503
I773
sS'HP.N'
p504
I602
sS'VLY.N'
p505
I1289
sS'STTS.O'
p506
I1163
sS'TTI.N'
p507
I1242
sS'EQY.N'
p508
I454
sS'CF.N'
p509
I255
sS'PNRA.O'
p510
I995
sS'JNJ.N'
p511
I680
sS'HUBb.N'
p512
I617
sS'HIH.N'
p513
I581
sS'CEG.N'
p514
I247
sS'PXD.N'
p515
I1021
sS'HD.N'
p516
I575
sS'CB.N'
p517
I227
sS'GFI.N'
p518
I524
sS'LNT.N'
p519
I748
sS'EDU.N'
p520
I427
sS'GSK.N'
p521
I551
sS'DSX.N'
p522
I1375
sS'SHPGY.O'
p523
I1104
sS'KEA.N'
p524
I692
sS'THOR.O'
p525
I1200
sS'PTP.N'
p526
I1371
sS'URI.N'
p527
I1272
sS'RNR.N'
p528
I1055
sS'SWY.N'
p529
I1174
sS'QSFT.O'
p530
I1028
sS'UTI.N'
p531
I1279
sS'LCC.N'
p532
I726
sS'ENTG.O'
p533
I446
sS'OIS.N'
p534
I916
sS'CTAS.O'
p535
I339
sS'MCRS.O'
p536
I1393
sS'ABV.N'
p537
I9
sS'JWN.N'
p538
I685
sS'AAPL.O'
p539
I3
sS'ONB.N'
p540
I924
sS'CKH.N'
p541
I275
sS'TRMB.O'
p542
I1229
sS'ECL.N'
p543
I423
sS'ECLP.O'
p544
I424
sS'ALO.N'
p545
I63
sS'VSH.N'
p546
I1299
sS'MHS.N'
p547
I805
sS'FUL.N'
p548
I513
sS'CL.N'
p549
I277
sS'ME.N'
p550
I791
sS'RF.N'
p551
I1044
sS'PTR.N'
p552
I1016
sS'DY.N'
p553
I415
sS'NXY.N'
p554
I902
sS'SYK.N'
p555
I1176
sS'A.N'
p556
I0
sS'DCI.N'
p557
I369
sS'NEWP.O'
p558
I1418
sS'ALU.N'
p559
I65
sS'SRX.N'
p560
I1149
sS'CP.N'
p561
I315
sS'VPHM.O'
p562
I1293
sS'OKE.N'
p563
I917
sS'CEI.N'
p564
I248
sS'ABD.N'
p565
I6
sS'HMY.N'
p566
I593
sS'PAS.N'
p567
I942
sS'HRL.N'
p568
I607
sS'MCHP.O'
p569
I782
sS'KMX.N'
p570
I707
sS'ILMN.O'
p571
I639
sS'SWC.N'
p572
I1169
sS'DE.N'
p573
I372
sS'FMC.N'
p574
I498
sS'RMBS.O'
p575
I1053
sS'Q.N'
p576
I1025
sS'COGN.O'
p577
I307
sS'EXC.N'
p578
I464
sS'INT.N'
p579
I646
sS'GNTX.O'
p580
I539
sS'AEA.N'
p581
I25
sS'HES.N'
p582
I576
sS'CLC.N'
p583
I279
sS'BKH.N'
p584
I1446
sS'CSE.N'
p585
I335
sS'EMC.N'
p586
I440
sS'EME.N'
p587
I441
sS'SE.N'
p588
I1093
sS'CEO.N'
p589
I252
sS'LSTR.O'
p590
I758
sS'WMI.N'
p591
I1328
sS'PNY.N'
p592
I997
sS'TRN.N'
p593
I1230
sS'BMR.N'
p594
I186
sS'SMTC.O'
p595
I1129
sS'FDRY.O'
p596
I479
sS'AEG.N'
p597
I27
sS'AMAT.O'
p598
I68
sS'ASCA.O'
p599
I103
sS'GWR.N'
p600
I559
sS'CAJ.N'
p601
I221
sS'PNC.N'
p602
I992
sS'YUM.N'
p603
I1359
sS'JCI.N'
p604
I672
sS'SCSS.O'
p605
I1092
sS'CAH.N'
p606
I219
sS'CDR.N'
p607
I243
sS'AVY.N'
p608
I126
sS'BBD.N'
p609
I141
sS'PNM.N'
p610
I994
sS'RDC.N'
p611
I1035
sS'CMCSK.O'
p612
I288
sS'DVN.N'
p613
I413
sS'SOHU.O'
p614
I1139
sS'CMCSA.O'
p615
I287
sS'SYNA.O'
p616
I1179
sS'SII.N'
p617
I1109
sS'HRB.N'
p618
I606
sS'AKS.N'
p619
I56
sS'NMX.N'
p620
I872
sS'CTB.N'
p621
I340
sS'CAL.N'
p622
I222
sS'WEN.N'
p623
I1315
sS'SCHW.O'
p624
I1088
sS'HIW.N'
p625
I583
sS'HXM.N'
p626
I623
sS'SIGI.O'
p627
I1452
sS'AEO.N'
p628
I1428
sS'PJC.N'
p629
I1391
sS'KAR.N'
p630
I687
sS'BEAS.O'
p631
I154
sS'TMO.N'
p632
I1217
sS'CVX.N'
p633
I355
sS'QLGC.O'
p634
I1027
sS'LSI.N'
p635
I756
sS'AVA.N'
p636
I120
sS'FRX.N'
p637
I509
sS'ELN.N'
p638
I436
sS'ADBE.O'
p639
I17
sS'DWA.N'
p640
I414
sS'WMG.N'
p641
I1327
sS'CAR.N'
p642
I225
sS'ELX.N'
p643
I438
sS'EOG.N'
p644
I447
sS'NLC.N'
p645
I869
sS'PTV.N'
p646
I1018
sS'LSS.N'
p647
I757
sS'PNW.N'
p648
I996
sS'ESV.N'
p649
I458
sS'IBM.N'
p650
I627
sS'BUD.N'
p651
I210
sS'COST.O'
p652
I314
sS'PII.N'
p653
I977
sS'UBB.N'
p654
I1257
sS'MPW.N'
p655
I1405
sS'EEFT.O'
p656
I429
sS'BRCM.O'
p657
I198
sS'CTL.N'
p658
I342
sS'ANDE.O'
p659
I82
sS'TROW.O'
p660
I1231
sS'NTRI.O'
p661
I888
sS'GPI.N'
p662
I543
sS'EP.N'
p663
I448
sS'NAK.A'
p664
I1415
sS'PSSI.O'
p665
I1012
sS'MEE.N'
p666
I794
sS'GMT.N'
p667
I537
sS'CECO.O'
p668
I246
sS'BMC.N'
p669
I184
sS'PRE.N'
p670
I1007
sS'BMA.N'
p671
I183
sS'KFY.N'
p672
I697
sS'X.N'
p673
I1351
sS'HOS.N'
p674
I599
sS'PPG.N'
p675
I1003
sS'WFC.N'
p676
I1317
sS'CENX.O'
p677
I251
sS'NSIT.O'
p678
I882
sS'PLCE.O'
p679
I983
sS'CVD.N'
p680
I351
sS'NHP.N'
p681
I863
sS'ICON.O'
p682
I630
sS'MIL.N'
p683
I806
sS'CRDN.O'
p684
I324
sS'EBAY.O'
p685
I421
sS'ABM.N'
p686
I7
sS'CBI.N'
p687
I229
sS'HDB.N'
p688
I1440
sS'AUO.N'
p689
I117
sS'MBT.N'
p690
I778
sS'PKI.N'
p691
I979
sS'TKLC.O'
p692
I1209
sS'ROH.N'
p693
I1056
sS'NKTR.O'
p694
I868
sS'ACXM.O'
p695
I16
sS'LLY.N'
p696
I743
sS'SWN.N'
p697
I1172
sS'TTWO.O'
p698
I1244
sS'NBR.N'
p699
I849
sS'RTN.N'
p700
I1066
sS'NOK.N'
p701
I876
sS'XLNX.O'
p702
I1354
sS'WHR.N'
p703
I1321
sS'SUN.N'
p704
I1166
sS'GPS.N'
p705
I545
sS'GYMB.O'
p706
I563
sS'MYL.N'
p707
I846
sS'DD.N'
p708
I370
sS'IEX.N'
p709
I1414
sS'CBK.N'
p710
I230
sS'AFFX.O'
p711
I34
sS'CPWR.O'
p712
I320
sS'ABC.N'
p713
I5
sS'ZOLT.O'
p714
I1425
sS'VMSI.O'
p715
I1377
sS'KKD.N'
p716
I701
sS'TNOX.O'
p717
I1221
sS'TLB.N'
p718
I1212
sS'WMT.N'
p719
I1330
sS'CBEY.O'
p720
I1388
sS'MXIM.O'
p721
I844
sS'AVCT.O'
p722
I122
sS'RYI.N'
p723
I1071
sS'SBGI.O'
p724
I1463
sS'DIVX.O'
p725
I383
sS'CHRW.O'
p726
I266
sS'FULT.O'
p727
I1370
sS'SIMG.O'
p728
I1111
sS'BMY.N'
p729
I189
sS'PLT.N'
p730
I987
sS'LGF.N'
p731
I735
sS'WWW.N'
p732
I1346
sS'ABG.N'
p733
I1382
sS'PPS.N'
p734
I1006
sS'VAR.N'
p735
I1283
sS'CHL.N'
p736
I265
sS'TXI.N'
p737
I1250
sS'RSG.N'
p738
I1063
sS'CRA.N'
p739
I323
sS'LRCX.O'
p740
I753
sS'NWL.N'
p741
I897
sS'PLL.N'
p742
I985
sS'CBS.N'
p743
I232
sS'CHH.N'
p744
I262
sS'ABY.N'
p745
I10
sS'AEP.N'
p746
I30
sS'AGYS.O'
p747
I1459
sS'XOM.N'
p748
I1356
sS'JCP.N'
p749
I673
sS'SON.N'
p750
I1140
sS'MTH.N'
p751
I835
sS'SEIC.O'
p752
I1095
sS'HYDL.O'
p753
I624
sS'VG.N'
p754
I1286
sS'DV.N'
p755
I411
sS'MCRL.O'
p756
I785
sS'SYKE.O'
p757
I1177
sS'AHL.N'
p758
I44
sS'ALNY.O'
p759
I62
sS'NOC.N'
p760
I875
sS'SBH.N'
p761
I1081
sS'BHP.N'
p762
I169
sS'BDK.N'
p763
I151
sS'PCH.N'
p764
I952
sS'CYMI.O'
p765
I360
sS'WMB.N'
p766
I1326
sS'INWK.O'
p767
I649
sS'ORB.N'
p768
I928
sS'EYE.N'
p769
I469
sS'DNR.N'
p770
I393
sS'TSN.N'
p771
I1237
sS'OXY.N'
p772
I938
sS'DGX.N'
p773
I377
sS'NTGR.O'
p774
I887
sS'AXP.N'
p775
I130
sS'OO.N'
p776
I926
sS'WL.N'
p777
I1323
sS'CMVT.OQ'
p778
I293
sS'NBL.N'
p779
I848
sS'WWY.N'
p780
I1347
sS'WCN.N'
p781
I1311
sS'SHW.N'
p782
I1105
sS'CYN.N'
p783
I361
sS'PCL.N'
p784
I953
sS'WB.N'
p785
I1306
sS'SPG.N'
p786
I1143
sS'MLM.N'
p787
I812
sS'ORH.N'
p788
I930
sS'TS.N'
p789
I1234
sS'CRM.N'
p790
I328
sS'KBH.N'
p791
I688
sS'EW.N'
p792
I463
sS'MDC.N'
p793
I786
sS'ADS.N'
p794
I22
sS'PEP.N'
p795
I963
sS'TXU.N'
p796
I1254
sS'TE.N'
p797
I1188
sS'PX.N'
p798
I1020
sS'CCOI.O'
p799
I240
sS'TSL.N'
p800
I1448
sS'PER.N'
p801
I964
sS'PCP.N'
p802
I955
sS'BEE.N'
p803
I158
sS'MTD.N'
p804
I833
sS'BDC.N'
p805
I150
sS'TK.N'
p806
I1207
sS'POM.N'
p807
I998
sS'RDSb.N'
p808
I1038
sS'TLAB.O'
p809
I1211
sS'MTB.N'
p810
I832
sS'PL.N'
p811
I981
sS'AMIS.O'
p812
I1439
sS'AN.N'
p813
I81
sS'CMS.N'
p814
I292
sS'FL.N'
p815
I491
sS'VCI.N'
p816
I1284
sS'AH.N'
p817
I42
sS'BAP.N'
p818
I1401
sS'TBL.N'
p819
I1184
sS'WFSL.O'
p820
I1318
sS'RDN.N'
p821
I1036
sS'MRH.N'
p822
I824
sS'LEG.N'
p823
I731
sS'BAX.N'
p824
I139
sS'LEA.N'
p825
I728
sS'FEIC.O'
p826
I483
sS'EIX.N'
p827
I434
sS'ATMI.O'
p828
I109
sS'ETM.N'
p829
I460
sS'BWA.N'
p830
I212
sS'OC.N'
p831
I1390
sS'INTC.O'
p832
I647
sS'CCBL.O'
p833
I1426
sS'ZNT.N'
p834
I1419
sS'UNP.N'
p835
I1267
sS'IMCL.O'
p836
I641
sS'MDU.N'
p837
I790
sS'AMLN.O'
p838
I74
sS'PPDI.O'
p839
I1002
sS'FITB.O'
p840
I490
sS'NOVL.O'
p841
I878
sS'TIN.N'
p842
I1205
sS'BCR.N'
p843
I148
sS'PFCB.O'
p844
I966
sS'LM.N'
p845
I744
sS'KNX.N'
p846
I709
sS'ICO.N'
p847
I629
sS'GS.N'
p848
I549
sS'GG.N'
p849
I525
sS'BLUD.O'
p850
I182
sS'CIEN.O'
p851
I271
sS'GE.N'
p852
I522
sS'HST.N'
p853
I612
sS'OMC.N'
p854
I919
sS'ADI.N'
p855
I19
sS'DRQ.N'
p856
I406
sS'AF.N'
p857
I33
sS'FSLR.O'
p858
I510
sS'FIS.N'
p859
I488
sS'DST.N'
p860
I407
sS'HSP.N'
p861
I611
sS'DKS.N'
p862
I385
sS'ATW.N'
p863
I115
sS'VOL.N'
p864
I1292
sS'EGN.N'
p865
I433
sS'ATU.N'
p866
I114
sS'GISX.O'
p867
I1412
sS'KND.N'
p868
I708
sS'PFE.N'
p869
I967
sS'IFF.N'
p870
I634
sS'NVDA.O'
p871
I893
sS'MAT.N'
p872
I775
sS'K.N'
p873
I686
sS'ISRG.O'
p874
I659
sS'GMST.O'
p875
I536
sS'BRL.N'
p876
I202
sS'PZZA.O'
p877
I1024
sS'PBRa.N'
p878
I948
sS'GAP.N'
p879
I515
sS'FII.N'
p880
I487
sS'HAL.N'
p881
I565
sS'BNK.N'
p882
I191
sS'QCOM.O'
p883
I1026
sS'BNI.N'
p884
I190
sS'GGB.N'
p885
I526
sS'TLM.N'
p886
I1214
sS'BIDU.O'
p887
I172
sS'FLR.N'
p888
I496
sS'MCGC.O'
p889
I781
sS'TLK.N'
p890
I1213
sS'BA.N'
p891
I137
sS'PCLN.O'
p892
I954
sS'ACS.N'
p893
I14
sS'WGO.N'
p894
I1320
sS'KEY.N'
p895
I695
sS'WAG.N'
p896
I1304
sS'AZO.N'
p897
I135
sS'PKX.N'
p898
I980
sS'RAI.N'
p899
I1031
sS'JEC.N'
p900
I674
sS'PHM.N'
p901
I975
sS'AT.N'
p902
I106
sS'ATO.N'
p903
I111
sS'CNH.N'
p904
I1392
sS'GI.N'
p905
I528
sS'OMM.N'
p906
I922
sS'SEPR.O'
p907
I1096
sS'HCR.N'
p908
I574
sS'PAA.N'
p909
I1458
sS'JLL.N'
p910
I678
sS'STJ.N'
p911
I1156
sS'PAC.N'
p912
I1386
sS'HSIC.O'
p913
I610
sS'ALK.N'
p914
I60
sS'AMD.N'
p915
I69
sS'MON.N'
p916
I819
sS'LXK.N'
p917
I765
sS'HOG.N'
p918
I596
sS'PFS.N'
p919
I1404
sS'URS.N'
p920
I1273
sS'AAI.N'
p921
I1
sS'SNY.N'
p922
I1137
sS'AMP.N'
p923
I76
sS'CEC.N'
p924
I1411
sS'CX.N'
p925
I356
sS'LUK.N'
p926
I761
sS'CKR.N'
p927
I276
sS'VRGY.O'
p928
I1294
sS'HSC.N'
p929
I609
sS'NMR.N'
p930
I871
sS'BUCY.O'
p931
I209
sS'TQNT.O'
p932
I1225
sS'ITW.N'
p933
I664
sS'NFS.N'
p934
I860
sS'ARW.N'
p935
I99
sS'PALM.O'
p936
I941
sS'PCU.N'
p937
I956
sS'DRC.N'
p938
I401
sS'ATHR.O'
p939
I107
sS'PAY.N'
p940
I943
sS'MRX.N'
p941
I827
sS'PHG.N'
p942
I973
sS'PCAR.O'
p943
I950
sS'TKR.N'
p944
I1210
sS'LPX.N'
p945
I752
sS'SIE.N'
p946
I1108
sS'GCO.N'
p947
I518
sS'MR.N'
p948
I822
sS'IPG.N'
p949
I652
sS'JNPR.O'
p950
I681
sS'SKS.N'
p951
I1118
sS'TRB.N'
p952
I1227
sS'ARE.N'
p953
I97
sS'TDW.N'
p954
I1187
sS'SINA.O'
p955
I1112
sS'MDRX.O'
p956
I789
sS'FRT.N'
p957
I508
sS'NLY.N'
p958
I870
sS'CDNS.O'
p959
I242
sS'BFb.N'
p960
I162
sS'BEC.N'
p961
I156
sS'NCX.N'
p962
I853
sS'NFG.N'
p963
I857
sS'SRZ.N'
p964
I1150
sS'CR.N'
p965
I322
sS'BOBJ.O'
p966
I192
sS'KSWS.O'
p967
I1407
sS'UCO.N'
p968
I1258
sS'VRSN.O'
p969
I1295
sS'CLE.N'
p970
I280
sS'DOX.N'
p971
I397
sS'CYTC.O'
p972
I363
sS'CFR.N'
p973
I257
sS'OXPS.O'
p974
I937
sS'SFC.N'
p975
I1097
sS'TDY.N'
p976
I1408
sS'FMCN.O'
p977
I499
sS'BCO.N'
p978
I147
sS'DPZ.N'
p979
I399
sS'STLD.O'
p980
I1157
sS'HSY.N'
p981
I613
sS'TAP.N'
p982
I1183
sS'SVNT.O'
p983
I1383
sS'RPM.N'
p984
I1060
sS'LSCC.O'
p985
I755
sS'TIBX.O'
p986
I1202
sS'CCL.N'
p987
I239
sS'CKFR.O'
p988
I274
sS'LFC.N'
p989
I734
sS'HNT.N'
p990
I594
sS'SLR.N'
p991
I1125
sS'GBBK.O'
p992
I517
sS'SFI.N'
p993
I1099
sS'IPS.N'
p994
I653
sS'HTZ.N'
p995
I615
sS'ITRI.O'
p996
I663
sS'PNK.N'
p997
I993
sS'XTO.N'
p998
I1357
sS'BJ.N'
p999
I175
sS'AMGN.O'
p1000
I72
sS'LDG.N'
p1001
I727
sS'BMET.O'
p1002
I185
sS'NWY.N'
p1003
I898
sS'CNQ.N'
p1004
I301
sS'CNW.N'
p1005
I303
sS'CVH.N'
p1006
I353
sS'INFA.O'
p1007
I643
sS'CCJ.N'
p1008
I237
sS'CREE.O'
p1009
I325
sS'JKHY.O'
p1010
I677
sS'DOV.N'
p1011
I395
sS'NNN.N'
p1012
I874
sS'SNPS.O'
p1013
I1136
sS'LI.N'
p1014
I738
sS'NITE.O'
p1015
I865
sS'SSI.N'
p1016
I1152
sS'OCN.N'
p1017
I907
sS'GDP.N'
p1018
I521
sS'TUES.O'
p1019
I1245
sS'ZZ.N'
p1020
I1368
sS'GRA.N'
p1021
I547
sS'VFC.N'
p1022
I1285
sS'DQE.N'
p1023
I400
sS'BSX.N'
p1024
I208
sS'WERN.O'
p1025
I1316
sS'ALXN.O'
p1026
I67
sS'DIGE.O'
p1027
I380
sS'CLS.N'
p1028
I283
sS'GNA.N'
p1029
I538
sS'CTSH.O'
p1030
I344
sS'ANDW.O'
p1031
I83
sS'IKN.N'
p1032
I637
sS'DPL.N'
p1033
I398
sS'HOLX.O'
p1034
I597
sS'CG.N'
p1035
I258
sS'RS.N'
p1036
I1062
sS'PLCM.O'
p1037
I984
sS'BP.N'
p1038
I196
sS'CE.N'
p1039
I245
sS'MAN.N'
p1040
I772
sS'INFY.O'
p1041
I644
sS'DDS.N'
p1042
I371
sS'WTR.N'
p1043
I1341
sS'EPIC.O'
p1044
I450
sS'LH.N'
p1045
I736
sS'RJET.O'
p1046
I1462
sS'HAS.N'
p1047
I567
sS'GIS.N'
p1048
I530
sS'HW.N'
p1049
I620
sS'OMTR.O'
p1050
I923
sS'LXP.N'
p1051
I766
sS'CNC.N'
p1052
I295
sS'ACL.N'
p1053
I13
sS'MCO.N'
p1054
I784
sS'MEDI.O'
p1055
I792
sS'PMTI.O'
p1056
I991
sS'TIE.N'
p1057
I1203
sS'DIOD.O'
p1058
I381
sS'CI.N'
p1059
I269
sS'HLT.N'
p1060
I586
sS'BKC.N'
p1061
I178
sS'KRON.O'
p1062
I1413
sS'SYX.N'
p1063
I1395
sS'HIBB.O'
p1064
I1441
sS'MOLX.O'
p1065
I818
sS'KNXA.O'
p1066
I1403
sS'NEM.N'
p1067
I856
sS'NSR.N'
p1068
I884
sS'FCX.N'
p1069
I476
sS'RBC.N'
p1070
I1032
sS'LWSN.O'
p1071
I764
sS'HIG.N'
p1072
I580
sS'FNFG.O'
p1073
I503
sS'SRE.N'
p1074
I1148
sS'OCR.N'
p1075
I908
sS'IT.N'
p1076
I660
sS'ECA.N'
p1077
I422
sS'ING.N'
p1078
I645
sS'MCK.N'
p1079
I783
sS'DSW.N'
p1080
I408
sS'IP.N'
p1081
I650
sS'CS.N'
p1082
I333
sS'UHS.N'
p1083
I1261
sS'PAAS.O'
p1084
I939
sS'MGLN.O'
p1085
I802
sS'FMX.N'
p1086
I501
sS'ANF.N'
p1087
I84
sS'PKG.N'
p1088
I978
sS'FORM.O'
p1089
I505
sS'ORCL.O'
p1090
I929
sS'DJ.N'
p1091
I384
sS'TECD.O'
p1092
I1189
sS'CDWC.O'
p1093
I244
sS'HRS.N'
p1094
I608
sS'SWKS.O'
p1095
I1171
sS'WOR.N'
p1096
I1333
sS'ROP.N'
p1097
I1058
sS'AHT.N'
p1098
I46
sS'PTEN.O'
p1099
I1015
sS'HLIT.O'
p1100
I1417
sS'TTEK.O'
p1101
I1241
sS'JAH.N'
p1102
I666
sS'ASBC.O'
p1103
I102
sS'CTCM.O'
p1104
I341
sS'JBHT.O'
p1105
I667
sS'TSCO.O'
p1106
I1235
sS'BMS.N'
p1107
I188
sS'EAGL.O'
p1108
I418
sS'PRU.N'
p1109
I1008
sS'SAY.N'
p1110
I1079
sS'PBY.N'
p1111
I949
sS'GILD.O'
p1112
I529
sS'EE.N'
p1113
I428
sS'SBUX.O'
p1114
I1084
sS'UTX.N'
p1115
I1281
sS'NXL.N'
p1116
I901
sS'MOGN.O'
p1117
I817
sS'CHD.N'
p1118
I260
sS'RGS.N'
p1119
I1048
sS'DTG.N'
p1120
I410
sS'BRKL.O'
p1121
I200
sS'AQNT.O'
p1122
I95
sS'STKL.O'
p1123
I1443
sS'DTE.N'
p1124
I409
sS'NX.N'
p1125
I899
sS'KTC.N'
p1126
I719
sS'OSI.N'
p1127
I932
sS'SYMC.O'
p1128
I1178
sS'AUY.N'
p1129
I118
sS'OSK.N'
p1130
I934
sS'AET.N'
p1131
I32
sS'BEAV.O'
p1132
I155
sS'EXR.N'
p1133
I468
sS'TRID.O'
p1134
I1228
sS'HXL.N'
p1135
I622
sS'AEL.N'
p1136
I29
sS'AXL.N'
p1137
I129
sS'MMM.N'
p1138
I815
sS'HUN.N'
p1139
I619
sS'XMSR.O'
p1140
I1355
sS'INTU.O'
p1141
I648
sS'MMC.N'
p1142
I814
sS'CVS.N'
p1143
I354
sS'TAM.N'
p1144
I1182
sS'ELY.N'
p1145
I439
sS'NJR.N'
p1146
I866
sS'ATPG.O'
p1147
I112
sS'TMX.N'
p1148
I1218
sS'CFC.N'
p1149
I256
sS'HPC.N'
p1150
I603
sS'COG.N'
p1151
I306
sS'WEBX.O'
p1152
I1314
sS'COGT.O'
p1153
I308
sS'LEE.N'
p1154
I730
sS'IBN.N'
p1155
I628
sS'MLI.N'
p1156
I811
sS'KDN.N'
p1157
I691
sS'BAC.N'
p1158
I138
sS'AV.N'
p1159
I119
sS'UNT.N'
p1160
I1268
sS'MWAb.N'
p1161
I842
sS'ZGEN.O'
p1162
I1361
sS'STEI.O'
p1163
I1154
sS'FHN.N'
p1164
I485
sS'CSX.N'
p1165
I338
sS'EQ.N'
p1166
I451
sS'BXP.N'
p1167
I214
sS'OCAS.O'
p1168
I906
sS'SHO.N'
p1169
I1103
sS'MRO.N'
p1170
I825
sS'CTXS.O'
p1171
I347
sS'MRD.N'
p1172
I823
sS'CINF.O'
p1173
I273
sS'GLS.N'
p1174
I531
sS'TM.N'
p1175
I1215
sS'DEI.N'
p1176
I373
sS'MATK.O'
p1177
I776
sS'GDI.N'
p1178
I520
sS'DRI.N'
p1179
I404
sS'LOW.N'
p1180
I749
sS'DELL.O'
p1181
I374
sS'OMG.N'
p1182
I920
sS'WDR.N'
p1183
I1313
sS'COO.N'
p1184
I312
sS'SAH.N'
p1185
I1076
sS'CHIC.O'
p1186
I263
sS'APH.N'
p1187
I91
sS'APD.N'
p1188
I90
sS'BOT.N'
p1189
I194
sS'FIC.N'
p1190
I486
sS'VNO.N'
p1191
I1291
sS'TNE.N'
p1192
I1220
sS'NAL.N'
p1193
I847
sS'BSG.N'
p1194
I207
sS'MBI.N'
p1195
I777
sS'CVG.N'
p1196
I352
sS'OMI.N'
p1197
I921
sS'DEO.N'
p1198
I375
sS'REGN.O'
p1199
I1042
sS'OTEX.O'
p1200
I935
sS'PENN.O'
p1201
I962
sS'AVT.N'
p1202
I124
sS'CAO.N'
p1203
I224
sS'GPN.N'
p1204
I544
sS'RVBD.O'
p1205
I1068
sS'IAG.N'
p1206
I626
sS'ROK.N'
p1207
I1057
sS'LYV.N'
p1208
I768
sS'MUR.N'
p1209
I839
sS'UL.N'
p1210
I1262
sS'RVI.N'
p1211
I1069
sS'BLK.N'
p1212
I1384
sS'PSYS.O'
p1213
I1014
sS'UN.N'
p1214
I1263
sS'UB.N'
p1215
I1256
sS'PSUN.O'
p1216
I1013
sS'PACR.O'
p1217
I940
sS'JBX.N'
p1218
I670
sS'LRY.N'
p1219
I754
sS'DHR.N'
p1220
I379
sS'PTRY.O'
p1221
I1017
sS'AVP.N'
p1222
I123
sS'AJG.N'
p1223
I53
sS'EQIX.O'
p1224
I452
sS'UNH.N'
p1225
I1265
sS'IFIN.O'
p1226
I635
sS'IFSIA.O'
p1227
I1454
sS'TUP.N'
p1228
I1246
sS'PSA.N'
p1229
I1010
sS'BOL.N'
p1230
I193
sS'SNDA.O'
p1231
I1131
sS'DRE.N'
p1232
I402
sS'HPT.N'
p1233
I604
sS'FFIV.O'
p1234
I484
sS'THE.N'
p1235
I1198
sS'SAF.N'
p1236
I1074
sS'UGI.N'
p1237
I1260
sS'KR.N'
p1238
I713
sS'SVVS.O'
p1239
I1168
sS'SUG.N'
p1240
I1165
sS'SAP.N'
p1241
I1077
sS'SOV.N'
p1242
I1142
sS'DLM.N'
p1243
I387
sS'EPD.N'
p1244
I449
sS'SHLD.O'
p1245
I1102
sS'WBSN.O'
p1246
I1308
sS'PGR.N'
p1247
I971
sS'JOE.N'
p1248
I683
sS'CELG.O'
p1249
I249
sS'PPP.N'
p1250
I1005
sS'MSFT.O'
p1251
I830
sS'KOMG.O'
p1252
I711
sS'WW.N'
p1253
I1345
sS'BMRN.O'
p1254
I187
sS'TX.N'
p1255
I1249
sS'CHAP.O'
p1256
I259
sS'WU.N'
p1257
I1344
sS'TXN.N'
p1258
I1251
sS'AXS.N'
p1259
I131
sS'STR.N'
p1260
I1161
sS'PXR.N'
p1261
I1409
sS'KGC.N'
p1262
I699
sS'MWV.N'
p1263
I843
sS'ANSS.O'
p1264
I1378
sS'CBD.N'
p1265
I1460
sS'HLX.N'
p1266
I587
sS'JCG.N'
p1267
I671
sS'SIVB.O'
p1268
I1114
sS'OPSW.O'
p1269
I927
sS'MSCC.O'
p1270
I829
sS'SXT.N'
p1271
I1438
sS'TEVA.O'
p1272
I1194
sS'MENT.O'
p1273
I796
sS'JBL.N'
p1274
I668
sS'HET.N'
p1275
I577
sS'USB.N'
p1276
I1274
sS'CSCO.O'
p1277
I334
sS'SBAC.O'
p1278
I1080
sS'CPX.N'
p1279
I321
sS'STN.N'
p1280
I1159
sS'RTI.N'
p1281
I1065
sS'NUS.N'
p1282
I1427
sS'TSO.N'
p1283
I1238
sS'KWK.N'
p1284
I721
sS'VZ.N'
p1285
I1302
sS'NFLX.O'
p1286
I858
sS'HYSL.O'
p1287
I625
sS'PXP.N'
p1288
I1022
sS'STT.N'
p1289
I1162
sS'NYT.N'
p1290
I904
sS'LPL.N'
p1291
I750
sS'NUE.N'
p1292
I892
sS'BLC.N'
p1293
I180
sS'AMX.N'
p1294
I79
sS'WM.N'
p1295
I1325
sS'FLEX.O'
p1296
I492
sS'MPEL.O'
p1297
I1381
sS'MLHR.O'
p1298
I810
sS'MKSI.O'
p1299
I809
sS'JH.N'
p1300
I676
sS'ENN.N'
p1301
I445
sS'KMT.N'
p1302
I706
sS'ORI.N'
p1303
I931
sS'KLAC.O'
p1304
I702
sS'EDS.N'
p1305
I426
sS'WY.N'
p1306
I1348
sS'APOL.O'
p1307
I93
sS'ENH.N'
p1308
I444
sS'BJS.N'
p1309
I176
sS'ILA.N'
p1310
I638
sS'COP.N'
p1311
I313
sS'GTW.N'
p1312
I556
sS'CRR.N'
p1313
I330
sS'ATML.O'
p1314
I110
sS'TSM.N'
p1315
I1236
sS'TER.N'
p1316
I1193
sS'TXRH.O'
p1317
I1252
sS'FDO.N'
p1318
I478
sS'CPB.N'
p1319
I317
sS'MTG.N'
p1320
I834
sS'TXT.N'
p1321
I1253
sS'OVTI.O'
p1322
I936
sS'RDSa.N'
p1323
I1037
sS'CBL.N'
p1324
I231
sS'NXG.A'
p1325
I900
sS'NCR.N'
p1326
I852
sS'HMN.N'
p1327
I592
sS'KMP.N'
p1328
I705
sS'APC.N'
p1329
I89
sS'GME.N'
p1330
I534
sS'CPT.N'
p1331
I319
sS'PCG.N'
p1332
I951
sS'APA.N'
p1333
I88
sS'GTI.N'
p1334
I554
sS'HGSI.O'
p1335
I579
sS'ARG.N'
p1336
I98
sS'POR.N'
p1337
I1421
sS'CMP.N'
p1338
I291
sS'BRKS.O'
p1339
I201
sS'SWFT.O'
p1340
I1170
sS'CNA.N'
p1341
I294
sS'TJX.N'
p1342
I1206
sS'FDC.N'
p1343
I477
sS'CHU.N'
p1344
I268
sS'VTR.N'
p1345
I1300
sS'BCE.N'
p1346
I146
sS'STZ.N'
p1347
I1164
sS'KYPH.O'
p1348
I722
sS'AGU.N'
p1349
I41
sS'ERIC.O'
p1350
I455
sS'TSU.N'
p1351
I1239
sS'KMB.N'
p1352
I703
sS'PEI.N'
p1353
I961
sS'TRST.O'
p1354
I1410
sS'EXEL.O'
p1355
I465
sS'NVS.N'
p1356
I895
sS'BCS.N'
p1357
I149
sS'ARXX.O'
p1358
I101
sS'GXP.N'
p1359
I561
sS'SKM.N'
p1360
I1117
sS'LLTC.O'
p1361
I742
sS'ZUMZ.O'
p1362
I1367
sS'CNS.N'
p1363
I302
sS'WSM.N'
p1364
I1337
sS'ROST.O'
p1365
I1059
sS'VRX.N'
p1366
I1297
sS'EAT.N'
p1367
I420
sS'HLF.N'
p1368
I585
sS'WSO.N'
p1369
I1338
sS'CNE.N'
p1370
I296
sS'UPS.N'
p1371
I1270
sS'HBC.N'
p1372
I569
sS'DBD.N'
p1373
I367
sS'ADP.N'
p1374
I21
sS'COH.N'
p1375
I309
sS'AG.N'
p1376
I38
sS'PEG.N'
p1377
I960
sS'FE.N'
p1378
I482
sS'PLLL.O'
p1379
I986
sS'DRIV.O'
p1380
I405
sS'HOT.N'
p1381
I600
sS'H.N'
p1382
I564
sS'WDC.N'
p1383
I1312
sS'HTLD.O'
p1384
I614
sS'BRY.N'
p1385
I205
sS'IN.N'
p1386
I642
sS'AFR.N'
p1387
I37
sS'HWAY.O'
p1388
I621
sS'RCII.O'
p1389
I1033
sS'PG.N'
p1390
I969
sS'TCB.N'
p1391
I1185
sS'OFC.N'
p1392
I911
sS'AMMD.O'
p1393
I75
sS'FMER.O'
p1394
I500
sS'MKC.N'
p1395
I808
sS'FCN.N'
p1396
I474
sS'BRE.N'
p1397
I199
sS'COMS.O'
p1398
I311
sS'WAB.N'
p1399
I1303
sS'GT.N'
p1400
I553
sS'ASPV.O'
p1401
I1429
sS'FCH.N'
p1402
I472
sS'JPM.N'
p1403
I684
sS'WGL.N'
p1404
I1319
sS'KEX.N'
p1405
I694
sS'MAA.N'
p1406
I1385
sS'AMTD.O'
p1407
I78
sS'CEN.N'
p1408
I250
sS'CEPH.O'
p1409
I253
sS'MDP.N'
p1410
I788
sS'KEP.N'
p1411
I693
sS'ADCT.O'
p1412
I18
sS'AU.N'
p1413
I116
sS'PHH.N'
p1414
I974
sS'CNI.N'
p1415
I298
sS'KO.N'
p1416
I710
sS'ITC.N'
p1417
I1402
sS'FCL.N'
p1418
I473
sS'LZ.N'
p1419
I769
sS'SCRX.O'
p1420
I1090
sS'XEL.N'
p1421
I1353
sS'STI.N'
p1422
I1155
sS'MO.N'
p1423
I816
sS'CC.N'
p1424
I236
sS'MA.N'
p1425
I770
sS'BYD.N'
p1426
I215
sS'CA.N'
p1427
I216
sS'CBSS.O'
p1428
I233
sS'GFF.N'
p1429
I1420
sS'SCG.N'
p1430
I1085
sS'UTIW.O'
p1431
I1280
sS'PDLI.O'
p1432
I959
sS'TPX.N'
p1433
I1224
sS'CY.N'
p1434
I358
sS'FCF.N'
p1435
I1399
sS'JNS.N'
p1436
I682
sS'SLB.N'
p1437
I1122
sS'BRS.N'
p1438
I204
sS'ACH.N'
p1439
I12
sS'MAS.N'
p1440
I774
sS'NST.N'
p1441
I885
sS'CLI.N'
p1442
I281
sS'EFX.N'
p1443
I432
sS'ACF.N'
p1444
I11
sS'HUBG.O'
p1445
I616
sS'ZMH.N'
p1446
I1364
sS'LZB.N'
p1447
I1389
sS'USPI.O'
p1448
I1276
sS'MSM.N'
p1449
I831
sS'SYT.N'
p1450
I1376
sS'HE.N'
p1451
I1461
sS'ODP.N'
p1452
I910
sS'HC.N'
p1453
I571
sS'WAT.N'
p1454
I1305
sS'T.N'
p1455
I1181
sS'STP.N'
p1456
I1160
sS'TWB.N'
p1457
I1248
sS'EQR.N'
p1458
I453
sS'HME.N'
p1459
I591
sS'PPL.N'
p1460
I1004
sS'SCI.N'
p1461
I1089
sS'AOS.N'
p1462
I87
sS'SID.N'
p1463
I1107
sS'WBS.N'
p1464
I1307
s.