(dp0
S'SCS.N'
p1
I1115
sS'BOBE.O'
p2
I1504
sS'ALTR.O'
p3
I65
sS'PLXS.O'
p4
I1011
sS'BGP.N'
p5
I168
sS'AAP.N'
p6
I2
sS'RGC.N'
p7
I1070
sS'UTHR.O'
p8
I1307
sS'TDS.A'
p9
I1536
sS'LAZ.N'
p10
I744
sS'MS.N'
p11
I850
sS'RKT.N'
p12
I1076
sS'MU.N'
p13
I860
sS'AYE.N'
p14
I134
sS'WIT.N'
p15
I1352
sS'MW.N'
p16
I863
sS'NDAQ.O'
p17
I876
sS'SKX.N'
p18
I1143
sS'SKYW.O'
p19
I1145
sS'CW.N'
p20
I1476
sS'NTY.N'
p21
I912
sS'GENZ.O'
p22
I540
sS'LVS.N'
p23
I783
sS'KBR.N'
p24
I709
sS'D.N'
p25
I378
sS'ALL.N'
p26
I62
sS'RE.N'
p27
I1064
sS'SNH.N'
p28
I1159
sS'EXP.N'
p29
I483
sS'ODFL.O'
p30
I931
sS'CIG.N'
p31
I280
sS'EMR.N'
p32
I459
sS'LNC.N'
p33
I766
sS'CUZ.N'
p34
I361
sS'PTMK.O'
p35
I1544
sS'URBN.O'
p36
I1300
sS'ZQK.N'
p37
I1395
sS'EXPD.O'
p38
I484
sS'ANR.N'
p39
I87
sS'NCC.N'
p40
I872
sS'PWR.N'
p41
I1043
sS'MFC.N'
p42
I819
sS'TRA.N'
p43
I1253
sS'SIL.A'
p44
I1134
sS'SJM.N'
p45
I1139
sS'ZRAN.O'
p46
I1396
sS'CSH.N'
p47
I350
sS'JEF.N'
p48
I695
sS'SNA.N'
p49
I1155
sS'BKS.N'
p50
I182
sS'LTM.N'
p51
I779
sS'EMN.N'
p52
I458
sS'DLB.N'
p53
I400
sS'AFL.N'
p54
I37
sS'CPS.N'
p55
I330
sS'VLO.N'
p56
I1318
sS'LFB.N'
p57
I753
sS'CLB.N'
p58
I286
sS'GWW.N'
p59
I578
sS'FCS.N'
p60
I492
sS'FRK.N'
p61
I524
sS'HAE.N'
p62
I1459
sS'AIZ.N'
p63
I53
sS'CRUS.O'
p64
I1410
sS'SKT.N'
p65
I1402
sS'BVN.N'
p66
I218
sS'BBY.N'
p67
I146
sS'DLX.N'
p68
I404
sS'GSIC.O'
p69
I568
sS'DVA.N'
p70
I426
sS'EAS.N'
p71
I433
sS'SNE.N'
p72
I1158
sS'ID.N'
p73
I649
sS'AIR.N'
p74
I50
sS'RMD.N'
p75
I1078
sS'AKR.N'
p76
I56
sS'PBG.N'
p77
I967
sS'PYX.N'
p78
I1047
sS'IRF.N'
p79
I673
sS'ALB.N'
p80
I58
sS'CERN.O'
p81
I262
sS'ILSE.O'
p82
I1412
sS'SFD.N'
p83
I1122
sS'SSD.N'
p84
I1176
sS'RFMD.O'
p85
I1069
sS'WRI.N'
p86
I1366
sS'DOW.N'
p87
I410
sS'AVX.N'
p88
I127
sS'CAI.N'
p89
I227
sS'GLW.N'
p90
I551
sS'HON.N'
p91
I616
sS'DECK.O'
p92
I1466
sS'AKAM.O'
p93
I55
sS'RECN.O'
p94
I1557
sS'LII.N'
p95
I760
sS'TOT.N'
p96
I1250
sS'MIR.N'
p97
I827
sS'TCK.N'
p98
I1492
sS'CAM.N'
p99
I230
sS'MEL.N'
p100
I815
sS'FRC.N'
p101
I1442
sS'WRE.N'
p102
I1365
sS'BSC.N'
p103
I212
sS'SCHN.O'
p104
I1111
sS'IWOV.O'
p105
I685
sS'WTW.N'
p106
I1373
sS'BOH.N'
p107
I198
sS'FLML.O'
p108
I511
sS'CVC.N'
p109
I363
sS'WTS.N'
p110
I1372
sS'RARE.O'
p111
I1484
sS'PDE.N'
p112
I981
sS'CVA.N'
p113
I362
sS'POOL.O'
p114
I1023
sS'RHI.N'
p115
I1073
sS'ALGN.O'
p116
I60
sS'SLG.N'
p117
I1148
sS'PBI.N'
p118
I968
sS'ACTS.O'
p119
I15
sS'YHOO.O'
p120
I1388
sS'CCU.N'
p121
I249
sS'UST.N'
p122
I1306
sS'E.N'
p123
I430
sS'SCHL.O'
p124
I1110
sS'SIRF.O'
p125
I1137
sS'KFN.N'
p126
I716
sS'HLYS.O'
p127
I606
sS'FNB.N'
p128
I519
sS'CAG.N'
p129
I225
sS'WOOF.O'
p130
I1362
sS'MER.N'
p131
I817
sS'CHTT.O'
p132
I1483
sS'AHG.N'
p133
I44
sS'MET.N'
p134
I818
sS'KSS.N'
p135
I737
sS'OLN.N'
p136
I940
sS'SONC.O'
p137
I1166
sS'KSU.N'
p138
I738
sS'AVB.N'
p139
I123
sS'FOE.N'
p140
I521
sS'MRVL.O'
p141
I848
sS'CLX.N'
p142
I292
sS'THO.N'
p143
I1226
sS'HBG.N'
p144
I1513
sS'HAR.N'
p145
I584
sS'KCI.N'
p146
I710
sS'RG.N'
p147
I1420
sS'HBI.N'
p148
I588
sS'PDCO.O'
p149
I980
sS'MCCC.O'
p150
I799
sS'LNCR.O'
p151
I767
sS'GRT.N'
p152
I1411
sS'CNET.O'
p153
I308
sS'CTRP.O'
p154
I356
sS'AINV.O'
p155
I49
sS'IPCR.O'
p156
I669
sS'RX.N'
p157
I1094
sS'APKT.O'
p158
I94
sS'CIB.N'
p159
I278
sS'F.N'
p160
I487
sS'OII.N'
p161
I937
sS'WTI.N'
p162
I1370
sS'NAVZ.OQ'
p163
I1433
sS'AMZN.O'
p164
I82
sS'ITMN.O'
p165
I681
sS'NVT.N'
p166
I918
sS'PLAB.O'
p167
I1005
sS'GRP.N'
p168
I566
sS'LTR.N'
p169
I780
sS'PRX.N'
p170
I1033
sS'NVL.N'
p171
I916
sS'NI.N'
p172
I886
sS'AHS.N'
p173
I46
sS'SPIL.O'
p174
I1169
sS'BGG.N'
p175
I167
sS'BSTE.O'
p176
I1405
sS'GTRC.O'
p177
I573
sS'GGAL.O'
p178
I1496
sS'WCG.N'
p179
I1340
sS'TV.N'
p180
I1275
sS'DO.N'
p181
I408
sS'ASX.N'
p182
I1493
sS'SNDK.O'
p183
I1157
sS'HNZ.N'
p184
I613
sS'SY.N'
p185
I1200
sS'DG.N'
p186
I390
sS'ERTS.O'
p187
I472
sS'WYN.N'
p188
I1379
sS'UAPH.O'
p189
I1284
sS'VOLC.O'
p190
I1425
sS'VVC.N'
p191
I1331
sS'CBH.N'
p192
I235
sS'THG.N'
p193
I1225
sS'AXE.N'
p194
I130
sS'NOV.N'
p195
I899
sS'TGT.N'
p196
I1223
sS'ABB.N'
p197
I4
sS'KIM.N'
p198
I720
sS'HBAN.O'
p199
I586
sS'JBLU.O'
p200
I689
sS'WMS.N'
p201
I1359
sS'CHK.N'
p202
I272
sS'UNFI.O'
p203
I1293
sS'SO.N'
p204
I1163
sS'POT.N'
p205
I1025
sS'IRC.N'
p206
I672
sS'RYN.N'
p207
I1097
sS'CHE.N'
p208
I269
sS'BGC.N'
p209
I166
sS'FLIR.O'
p210
I510
sS'CHS.N'
p211
I275
sS'DAKT.O'
p212
I380
sS'TIF.N'
p213
I1231
sS'WCC.N'
p214
I1339
sS'FTO.N'
p215
I529
sS'GLT.N'
p216
I550
sS'FTI.N'
p217
I528
sS'ASN.N'
p218
I107
sS'PMCS.O'
p219
I1012
sS'FSS.N'
p220
I1533
sS'FISV.O'
p221
I506
sS'CBT.N'
p222
I242
sS'RSH.N'
p223
I1088
sS'FDS.N'
p224
I497
sS'RRC.N'
p225
I1085
sS'ED.N'
p226
I439
sS'BDN.N'
p227
I154
sS'SPR.N'
p228
I1172
sS'PETM.O'
p229
I988
sS'SAFM.O'
p230
I1099
sS'ARXT.O'
p231
I102
sS'HUM.N'
p232
I636
sS'CVTX.O'
p233
I368
sS'NG.A'
p234
I884
sS'OI.N'
p235
I936
sS'RYL.N'
p236
I1096
sS'IM.N'
p237
I658
sS'AGE.N'
p238
I40
sS'TSG.N'
p239
I1263
sS'BHI.N'
p240
I170
sS'HLS.N'
p241
I1443
sS'SWS.N'
p242
I1198
sS'PBR.N'
p243
I969
sS'ISIL.O'
p244
I675
sS'COF.N'
p245
I316
sS'RDY.N'
p246
I1063
sS'BHS.N'
p247
I172
sS'IFS.N'
p248
I654
sS'BLL.N'
p249
I186
sS'TSS.N'
p250
I1431
sS'SYY.N'
p251
I1205
sS'USIH.O'
p252
I1432
sS'RJF.N'
p253
I1075
sS'GYI.N'
p254
I580
sS'BMRN.O'
p255
I192
sS'NYB.N'
p256
I925
sS'AW.N'
p257
I129
sS'TNB.N'
p258
I1246
sS'CTX.N'
p259
I359
sS'R.N'
p260
I1053
sS'MYGN.O'
p261
I867
sS'ABT.N'
p262
I8
sS'AES.N'
p263
I32
sS'HRH.N'
p264
I1498
sS'MPG.N'
p265
I842
sS'CAT.N'
p266
I233
sS'SPLS.O'
p267
I1170
sS'TEX.N'
p268
I1221
sS'BARE.O'
p269
I1546
sS'B.N'
p270
I138
sS'DADE.O'
p271
I379
sS'SMI.N'
p272
I1152
sS'EL.N'
p273
I449
sS'DRH.N'
p274
I417
sS'AEE.N'
p275
I26
sS'ARCC.O'
p276
I98
sS'RCL.N'
p277
I1058
sS'GPC.N'
p278
I560
sS'COL.N'
p279
I321
sS'VSEA.O'
p280
I1328
sS'GOLD.O'
p281
I559
sS'KG.N'
p282
I718
sS'CRL.N'
p283
I340
sS'NRPH.O'
p284
I902
sS'EV.N'
p285
I478
sS'GVA.N'
p286
I575
sS'BBV.N'
p287
I145
sS'MPS.N'
p288
I843
sS'TZIX.O'
p289
I1283
sS'BBT.N'
p290
I144
sS'DNA.N'
p291
I405
sS'BLKB.O'
p292
I185
sS'CTV.N'
p293
I358
sS'SVR.N'
p294
I1535
sS'BOW.N'
p295
I201
sS'OGE.N'
p296
I934
sS'BDX.N'
p297
I155
sS'BHE.N'
p298
I169
sS'NTES.O'
p299
I908
sS'RHT.N'
p300
I1074
sS'MGA.N'
p301
I821
sS'EIG.N'
p302
I1499
sS'TMK.N'
p303
I1243
sS'ITG.N'
p304
I680
sS'POL.N'
p305
I1021
sS'NTRS.O'
p306
I911
sS'COCO.O'
p307
I315
sS'LKQX.O'
p308
I761
sS'ADTN.O'
p309
I24
sS'BAK.N'
p310
I1399
sS'NKE.N'
p311
I889
sS'ELP.N'
p312
I453
sS'LHO.N'
p313
I757
sS'SMG.N'
p314
I1151
sS'WITS.O'
p315
I1404
sS'NFP.N'
p316
I881
sS'AMKR.O'
p317
I75
sS'ARAY.O'
p318
I1518
sS'FWRD.O'
p319
I531
sS'UNM.N'
p320
I1295
sS'SPN.N'
p321
I1171
sS'SKIL.O'
p322
I1140
sS'DHI.N'
p323
I392
sS'CAB.N'
p324
I224
sS'THX.N'
p325
I1228
sS'QMAR.O'
p326
I1465
sS'RGLD.O'
p327
I1071
sS'ZLC.N'
p328
I1393
sS'RAD.N'
p329
I1054
sS'BRC.N'
p330
I203
sS'PGI.N'
p331
I993
sS'GR.N'
p332
I564
sS'HCC.N'
p333
I591
sS'GD.N'
p334
I536
sS'OHI.N'
p335
I935
sS'VMC.N'
p336
I1320
sS'VAL.N'
p337
I1312
sS'WNR.N'
p338
I1361
sS'MGM.N'
p339
I823
sS'SBS.N'
p340
I1107
sS'TRYb.N'
p341
I1260
sS'FLO.N'
p342
I512
sS'HEW.N'
p343
I596
sS'SMOD.O'
p344
I1153
sS'TEO.N'
p345
I1218
sS'KRY.A'
p346
I735
sS'LPNT.O'
p347
I771
sS'TEK.N'
p348
I1216
sS'GAS.N'
p349
I533
sS'ISIS.O'
p350
I676
sS'CRZO.O'
p351
I345
sS'LUV.N'
p352
I782
sS'BRO.N'
p353
I209
sS'GHL.N'
p354
I1428
sS'FAST.O'
p355
I488
sS'HIMX.O'
p356
I600
sS'FLS.N'
p357
I514
sS'OSIP.O'
p358
I955
sS'LYO.N'
p359
I787
sS'AOC.N'
p360
I88
sS'TKC.N'
p361
I1235
sS'ONXX.O'
p362
I1500
sS'BBBY.O'
p363
I142
sS'NDN.N'
p364
I877
sS'LEN.N'
p365
I752
sS'GGG.N'
p366
I544
sS'TG.N'
p367
I1222
sS'ZION.O'
p368
I1392
sS'HMC.N'
p369
I608
sS'NUAN.O'
p370
I913
sS'CYT.N'
p371
I376
sS'WLK.N'
p372
I1354
sS'IDC.N'
p373
I1481
sS'STM.N'
p374
I1183
sS'SIAL.O'
p375
I1130
sS'IDA.N'
p376
I650
sS'AZN.N'
p377
I136
sS'KRC.N'
p378
I734
sS'RAH.N'
p379
I1478
sS'AGN.N'
p380
I41
sS'VRTX.O'
p381
I1326
sS'BIG.N'
p382
I175
sS'USG.N'
p383
I1304
sS'XNPT.O'
p384
I1545
sS'WYNN.O'
p385
I1380
sS'VMED.O'
p386
I1482
sS'AMT.N'
p387
I79
sS'LCAV.O'
p388
I745
sS'DCEL.O'
p389
I382
sS'NRG.N'
p390
I901
sS'MLNM.O'
p391
I833
sS'NFX.N'
p392
I883
sS'SGMS.O'
p393
I1125
sS'RTP.N'
p394
I1091
sS'MDCO.O'
p395
I807
sS'HMA.N'
p396
I607
sS'SVM.N'
p397
I1192
sS'MTX.N'
p398
I1470
sS'SNP.N'
p399
I1160
sS'ALJ.N'
p400
I1537
sS'PHRM.O'
p401
I999
sS'ISE.N'
p402
I674
sS'BWS.N'
p403
I220
sS'AME.N'
p404
I71
sS'JNC.N'
p405
I699
sS'AMG.N'
p406
I73
sS'CRS.N'
p407
I344
sS'EAC.N'
p408
I431
sS'TEG.N'
p409
I1508
sS'SIMO.O'
p410
I1507
sS'MAC.N'
p411
I791
sS'LIFC.O'
p412
I759
sS'ATRS.O'
p413
I115
sS'EFD.N'
p414
I444
sS'CPA.N'
p415
I328
sS'ZBRA.O'
p416
I1390
sS'KWD.N'
p417
I740
sS'ADSK.O'
p418
I23
sS'EFII.O'
p419
I445
sS'ALD.N'
p420
I59
sS'CBM.N'
p421
I1531
sS'UEPS.O'
p422
I1288
sS'PMI.N'
p423
I1013
sS'MTZ.N'
p424
I859
sS'IDTI.O'
p425
I651
sS'O.N'
p426
I927
sS'LAUR.O'
p427
I743
sS'GFIG.O'
p428
I1506
sS'BEZ.N'
p429
I163
sS'KPA.N'
p430
I732
sS'HCBK.O'
p431
I590
sS'BIIB.O'
p432
I176
sS'POS.N'
p433
I1024
sS'CMI.N'
p434
I300
sS'AFG.N'
p435
I36
sS'CROX.O'
p436
I342
sS'ELK.N'
p437
I450
sS'AYI.N'
p438
I135
sS'PAYX.O'
p439
I966
sS'CMC.N'
p440
I294
sS'DLR.N'
p441
I403
sS'APPB.O'
p442
I96
sS'CMA.N'
p443
I293
sS'DLP.N'
p444
I402
sS'MVL.N'
p445
I862
sS'ONNN.O'
p446
I947
sS'CYH.N'
p447
I373
sS'CMG.N'
p448
I298
sS'PSD.N'
p449
I1035
sS'AEIS.O'
p450
I28
sS'SAPE.O'
p451
I1102
sS'RWT.N'
p452
I1490
sS'UPL.A'
p453
I1298
sS'WR.N'
p454
I1364
sS'AIN.N'
p455
I48
sS'NTO.A'
p456
I1541
sS'NCI.N'
p457
I873
sS'ARD.N'
p458
I1503
sS'BID.N'
p459
I173
sS'ETR.N'
p460
I477
sS'FR.N'
p461
I523
sS'MTN.N'
p462
I858
sS'KMI.N'
p463
I724
sS'ALV.N'
p464
I67
sS'RES.N'
p465
I1067
sS'MFE.N'
p466
I820
sS'LMT.N'
p467
I765
sS'HNI.N'
p468
I1527
sS'FDX.N'
p469
I498
sS'DNB.N'
p470
I406
sS'VIAb.N'
p471
I1317
sS'CRI.N'
p472
I339
sS'BEN.N'
p473
I161
sS'SEE.N'
p474
I1118
sS'FRPT.O'
p475
I1435
sS'REG.N'
p476
I1065
sS'CXG.N'
p477
I371
sS'GMR.N'
p478
I553
sS'LEAP.O'
p479
I749
sS'MEDX.O'
p480
I813
sS'BER.N'
p481
I162
sS'ADM.N'
p482
I20
sS'SLAB.O'
p483
I1146
sS'SLM.N'
p484
I1149
sS'XEC.N'
p485
I1382
sS'PH.N'
p486
I995
sS'AIT.N'
p487
I51
sS'AIV.N'
p488
I52
sS'SLXP.O'
p489
I1457
sS'BRKR.O'
p490
I1475
sS'TOL.N'
p491
I1249
sS'GNW.N'
p492
I558
sS'MCD.N'
p493
I800
sS'WST.N'
p494
I1369
sS'TTC.N'
p495
I1268
sS'ASH.N'
p496
I106
sS'CCO.N'
p497
I1450
sS'SSL.N'
p498
I1178
sS'DIS.N'
p499
I396
sS'BC.N'
p500
I147
sS'UVV.N'
p501
I1479
sS'SBIB.O'
p502
I1106
sS'ESS.N'
p503
I1480
sS'SFL.N'
p504
I1124
sS'ARBA.O'
p505
I1458
sS'NSC.N'
p506
I903
sS'GGL.N'
p507
I545
sS'HOV.N'
p508
I619
sS'BK.N'
p509
I179
sS'BECN.O'
p510
I159
sS'ESE.N'
p511
I473
sS'NSM.N'
p512
I905
sS'TRW.N'
p513
I1259
sS'TCO.N'
p514
I1211
sS'ETH.N'
p515
I475
sS'CNP.N'
p516
I311
sS'NATI.O'
p517
I1467
sS'CCK.N'
p518
I245
sS'HL.N'
p519
I602
sS'GW.A'
p520
I576
sS'NNI.N'
p521
I895
sS'KNL.N'
p522
I1495
sS'KSE.N'
p523
I736
sS'CNL.N'
p524
I310
sS'CSGS.O'
p525
I349
sS'CBST.O'
p526
I241
sS'MHK.N'
p527
I824
sS'GSS.A'
p528
I570
sS'PFG.N'
p529
I991
sS'BG.N'
p530
I165
sS'CLP.N'
p531
I290
sS'ATI.N'
p532
I110
sS'TTM.N'
p533
I1271
sS'HR.N'
p534
I623
sS'TSFG.O'
p535
I1403
sS'MAR.N'
p536
I793
sS'HP.N'
p537
I620
sS'VLY.N'
p538
I1319
sS'STTS.O'
p539
I1188
sS'TTI.N'
p540
I1270
sS'EQY.N'
p541
I470
sS'CF.N'
p542
I263
sS'PNRA.O'
p543
I1018
sS'JNJ.N'
p544
I700
sS'HUBb.N'
p545
I635
sS'HIH.N'
p546
I599
sS'CEG.N'
p547
I255
sS'PXD.N'
p548
I1045
sS'HD.N'
p549
I593
sS'CB.N'
p550
I234
sS'GFI.N'
p551
I541
sS'LNT.N'
p552
I768
sS'ACO.N'
p553
I1556
sS'EDU.N'
p554
I441
sS'GSK.N'
p555
I569
sS'DSX.N'
p556
I1406
sS'SHPGY.O'
p557
I1128
sS'KEA.N'
p558
I712
sS'THOR.O'
p559
I1227
sS'PTP.N'
p560
I1401
sS'URI.N'
p561
I1301
sS'RNR.N'
p562
I1079
sS'SWY.N'
p563
I1199
sS'QSFT.O'
p564
I1052
sS'BKD.N'
p565
I181
sS'UTI.N'
p566
I1308
sS'LCC.N'
p567
I746
sS'ENTG.O'
p568
I462
sS'OIS.N'
p569
I938
sS'CTAS.O'
p570
I352
sS'MCRS.O'
p571
I1427
sS'ABV.N'
p572
I9
sS'JWN.N'
p573
I705
sS'AAPL.O'
p574
I3
sS'ONB.N'
p575
I946
sS'CKH.N'
p576
I283
sS'TRMB.O'
p577
I1256
sS'ECL.N'
p578
I437
sS'ECLP.O'
p579
I438
sS'ALO.N'
p580
I64
sS'VSH.N'
p581
I1329
sS'MHS.N'
p582
I825
sS'JRN.N'
p583
I1543
sS'FUL.N'
p584
I530
sS'CL.N'
p585
I285
sS'ME.N'
p586
I811
sS'RF.N'
p587
I1068
sS'MYE.N'
p588
I1548
sS'PTR.N'
p589
I1040
sS'DY.N'
p590
I429
sS'NXY.N'
p591
I924
sS'SYK.N'
p592
I1201
sS'A.N'
p593
I0
sS'DCI.N'
p594
I383
sS'NEWP.O'
p595
I1461
sS'ALU.N'
p596
I66
sS'SRX.N'
p597
I1174
sS'CP.N'
p598
I327
sS'VPHM.O'
p599
I1323
sS'OKE.N'
p600
I939
sS'CEI.N'
p601
I256
sS'GCA.N'
p602
I1477
sS'ABD.N'
p603
I6
sS'HMY.N'
p604
I611
sS'PAS.N'
p605
I964
sS'HRL.N'
p606
I625
sS'MCHP.O'
p607
I802
sS'KMX.N'
p608
I727
sS'ILMN.O'
p609
I657
sS'CPRT.O'
p610
I1523
sS'SWC.N'
p611
I1194
sS'DE.N'
p612
I386
sS'FMC.N'
p613
I515
sS'RMBS.O'
p614
I1077
sS'Q.N'
p615
I1049
sS'COGN.O'
p616
I318
sS'EXC.N'
p617
I481
sS'INT.N'
p618
I664
sS'GNTX.O'
p619
I557
sS'AEA.N'
p620
I25
sS'HES.N'
p621
I594
sS'CLC.N'
p622
I287
sS'BKH.N'
p623
I1494
sS'CSE.N'
p624
I348
sS'EMC.N'
p625
I456
sS'EME.N'
p626
I457
sS'SE.N'
p627
I1117
sS'CEO.N'
p628
I260
sS'LSTR.O'
p629
I778
sS'TEN.N'
p630
I1217
sS'WMI.N'
p631
I1358
sS'PNY.N'
p632
I1020
sS'UMPQ.O'
p633
I1554
sS'TRN.N'
p634
I1257
sS'BMR.N'
p635
I191
sS'SMTC.O'
p636
I1154
sS'FDRY.O'
p637
I496
sS'AEG.N'
p638
I27
sS'AMAT.O'
p639
I69
sS'ASCA.O'
p640
I105
sS'GWR.N'
p641
I577
sS'CAJ.N'
p642
I228
sS'PNC.N'
p643
I1015
sS'YUM.N'
p644
I1389
sS'JCI.N'
p645
I692
sS'SCSS.O'
p646
I1116
sS'CAH.N'
p647
I226
sS'CDR.N'
p648
I251
sS'AVY.N'
p649
I128
sS'BBD.N'
p650
I143
sS'PNM.N'
p651
I1017
sS'PRXL.O'
p652
I1549
sS'RDC.N'
p653
I1059
sS'CMCSK.O'
p654
I296
sS'DVN.N'
p655
I427
sS'SOHU.O'
p656
I1164
sS'CMCSA.O'
p657
I295
sS'SYNA.O'
p658
I1204
sS'SII.N'
p659
I1133
sS'HRB.N'
p660
I624
sS'AKS.N'
p661
I57
sS'NMX.N'
p662
I894
sS'CTB.N'
p663
I353
sS'CAL.N'
p664
I229
sS'WEN.N'
p665
I1345
sS'SCHW.O'
p666
I1112
sS'HIW.N'
p667
I601
sS'HXM.N'
p668
I641
sS'SIGI.O'
p669
I1501
sS'AEO.N'
p670
I1472
sS'PJC.N'
p671
I1424
sS'KAR.N'
p672
I707
sS'BEAS.O'
p673
I156
sS'TMO.N'
p674
I1244
sS'CVX.N'
p675
I369
sS'QLGC.O'
p676
I1051
sS'LSI.N'
p677
I776
sS'AVA.N'
p678
I122
sS'FRX.N'
p679
I526
sS'ELN.N'
p680
I451
sS'ADBE.O'
p681
I17
sS'DWA.N'
p682
I428
sS'WMG.N'
p683
I1357
sS'CAR.N'
p684
I232
sS'ELX.N'
p685
I454
sS'EOG.N'
p686
I463
sS'NLC.N'
p687
I891
sS'PTV.N'
p688
I1042
sS'LSS.N'
p689
I777
sS'PNW.N'
p690
I1019
sS'ESV.N'
p691
I474
sS'IBM.N'
p692
I645
sS'BUD.N'
p693
I217
sS'COST.O'
p694
I326
sS'PII.N'
p695
I1000
sS'UBB.N'
p696
I1286
sS'MPW.N'
p697
I1441
sS'EEFT.O'
p698
I443
sS'BRCM.O'
p699
I204
sS'CTL.N'
p700
I355
sS'ANDE.O'
p701
I84
sS'ESL.N'
p702
I1440
sS'TROW.O'
p703
I1258
sS'NTRI.O'
p704
I910
sS'GPI.N'
p705
I561
sS'FLA.N'
p706
I1526
sS'EP.N'
p707
I464
sS'NAK.A'
p708
I1456
sS'PSSI.O'
p709
I1036
sS'MEE.N'
p710
I814
sS'GMT.N'
p711
I555
sS'CECO.O'
p712
I254
sS'BMC.N'
p713
I189
sS'PRE.N'
p714
I1031
sS'BMA.N'
p715
I188
sS'KFY.N'
p716
I717
sS'X.N'
p717
I1381
sS'HOS.N'
p718
I617
sS'PPG.N'
p719
I1027
sS'WFC.N'
p720
I1347
sS'CENX.O'
p721
I259
sS'NSIT.O'
p722
I904
sS'PLCE.O'
p723
I1006
sS'CVD.N'
p724
I364
sS'NHP.N'
p725
I885
sS'ICON.O'
p726
I648
sS'MIL.N'
p727
I826
sS'CRDN.O'
p728
I337
sS'EBAY.O'
p729
I435
sS'ABM.N'
p730
I7
sS'CBI.N'
p731
I236
sS'HDB.N'
p732
I1487
sS'AUO.N'
p733
I119
sS'MBT.N'
p734
I798
sS'PKI.N'
p735
I1002
sS'TKLC.O'
p736
I1236
sS'ROH.N'
p737
I1080
sS'NKTR.O'
p738
I890
sS'ACXM.O'
p739
I16
sS'LLY.N'
p740
I763
sS'SWN.N'
p741
I1197
sS'TTWO.O'
p742
I1272
sS'NBR.N'
p743
I871
sS'DB.N'
p744
I1524
sS'RTN.N'
p745
I1090
sS'NOK.N'
p746
I898
sS'AZPN.O'
p747
I1540
sS'XLNX.O'
p748
I1384
sS'WHR.N'
p749
I1351
sS'SUN.N'
p750
I1191
sS'GPS.N'
p751
I563
sS'GYMB.O'
p752
I581
sS'MYL.N'
p753
I868
sS'DD.N'
p754
I384
sS'IEX.N'
p755
I1455
sS'CBK.N'
p756
I237
sS'AFFX.O'
p757
I35
sS'CPWR.O'
p758
I332
sS'ABC.N'
p759
I5
sS'ZOLT.O'
p760
I1468
sS'VMSI.O'
p761
I1408
sS'KKD.N'
p762
I721
sS'TNOX.O'
p763
I1248
sS'TLB.N'
p764
I1239
sS'WMT.N'
p765
I1360
sS'CBEY.O'
p766
I1421
sS'MXIM.O'
p767
I866
sS'AVCT.O'
p768
I124
sS'RYI.N'
p769
I1095
sS'SBGI.O'
p770
I1516
sS'DIVX.O'
p771
I397
sS'CHRW.O'
p772
I274
sS'FULT.O'
p773
I1400
sS'SIMG.O'
p774
I1135
sS'CVLT.O'
p775
I1559
sS'BMY.N'
p776
I194
sS'PLT.N'
p777
I1010
sS'LGF.N'
p778
I755
sS'WWW.N'
p779
I1376
sS'ABG.N'
p780
I1414
sS'PPS.N'
p781
I1030
sS'VAR.N'
p782
I1313
sS'GLBC.O'
p783
I1429
sS'CHL.N'
p784
I273
sS'TXI.N'
p785
I1278
sS'RSG.N'
p786
I1087
sS'CRA.N'
p787
I336
sS'LRCX.O'
p788
I773
sS'NWL.N'
p789
I919
sS'PLL.N'
p790
I1008
sS'CEDC.O'
p791
I1532
sS'CBS.N'
p792
I239
sS'CHH.N'
p793
I270
sS'ABY.N'
p794
I10
sS'AEP.N'
p795
I31
sS'AGYS.O'
p796
I1510
sS'XOM.N'
p797
I1386
sS'JCP.N'
p798
I693
sS'SON.N'
p799
I1165
sS'MTH.N'
p800
I857
sS'SEIC.O'
p801
I1119
sS'HYDL.O'
p802
I642
sS'VG.N'
p803
I1316
sS'DV.N'
p804
I425
sS'MCRL.O'
p805
I805
sS'SYKE.O'
p806
I1202
sS'AHL.N'
p807
I45
sS'ALNY.O'
p808
I63
sS'NOC.N'
p809
I897
sS'SBH.N'
p810
I1105
sS'IWA.N'
p811
I684
sS'BHP.N'
p812
I171
sS'BDK.N'
p813
I153
sS'PCH.N'
p814
I974
sS'CYMI.O'
p815
I374
sS'WMB.N'
p816
I1356
sS'INWK.O'
p817
I667
sS'ORB.N'
p818
I950
sS'EYE.N'
p819
I486
sS'DNR.N'
p820
I407
sS'TSN.N'
p821
I1265
sS'OXY.N'
p822
I960
sS'DGX.N'
p823
I391
sS'NTGR.O'
p824
I909
sS'AXP.N'
p825
I132
sS'OO.N'
p826
I948
sS'WL.N'
p827
I1353
sS'CMVT.OQ'
p828
I303
sS'NBL.N'
p829
I870
sS'WWY.N'
p830
I1377
sS'WCN.N'
p831
I1341
sS'SHW.N'
p832
I1129
sS'CYN.N'
p833
I375
sS'PCL.N'
p834
I975
sS'WB.N'
p835
I1336
sS'SPG.N'
p836
I1168
sS'MLM.N'
p837
I832
sS'ORH.N'
p838
I952
sS'TS.N'
p839
I1261
sS'CRM.N'
p840
I341
sS'KBH.N'
p841
I708
sS'EW.N'
p842
I479
sS'MDC.N'
p843
I806
sS'ADS.N'
p844
I22
sS'PEP.N'
p845
I986
sS'TXU.N'
p846
I1282
sS'TE.N'
p847
I1213
sS'PX.N'
p848
I1044
sS'CCOI.O'
p849
I248
sS'TSL.N'
p850
I1497
sS'PER.N'
p851
I987
sS'USTR.O'
p852
I1502
sS'PCP.N'
p853
I977
sS'BEE.N'
p854
I160
sS'MTD.N'
p855
I855
sS'BDC.N'
p856
I152
sS'TK.N'
p857
I1234
sS'AEOS.O'
p858
I30
sS'MMS.N'
p859
I837
sS'POM.N'
p860
I1022
sS'RDSb.N'
p861
I1062
sS'TLAB.O'
p862
I1238
sS'MTB.N'
p863
I854
sS'PL.N'
p864
I1004
sS'AMIS.O'
p865
I1486
sS'AN.N'
p866
I83
sS'CMS.N'
p867
I302
sS'FL.N'
p868
I508
sS'VCI.N'
p869
I1314
sS'ISLN.O'
p870
I1560
sS'AH.N'
p871
I43
sS'BAP.N'
p872
I1436
sS'TBL.N'
p873
I1209
sS'WFSL.O'
p874
I1348
sS'SMRT.O'
p875
I1534
sS'RDN.N'
p876
I1060
sS'MRH.N'
p877
I846
sS'BBBB.O'
p878
I1474
sS'LEG.N'
p879
I751
sS'BAX.N'
p880
I141
sS'LEA.N'
p881
I748
sS'FEIC.O'
p882
I500
sS'EIX.N'
p883
I448
sS'ATMI.O'
p884
I111
sS'ETM.N'
p885
I476
sS'BWA.N'
p886
I219
sS'OC.N'
p887
I1423
sS'BPFH.O'
p888
I1552
sS'INTC.O'
p889
I665
sS'CCBL.O'
p890
I1469
sS'ZNT.N'
p891
I1462
sS'UNP.N'
p892
I1296
sS'IMCL.O'
p893
I659
sS'MDU.N'
p894
I810
sS'AMLN.O'
p895
I76
sS'PPDI.O'
p896
I1026
sS'AB.N'
p897
I1521
sS'FITB.O'
p898
I507
sS'NOVL.O'
p899
I900
sS'TIN.N'
p900
I1232
sS'BCR.N'
p901
I150
sS'PFCB.O'
p902
I989
sS'LM.N'
p903
I764
sS'KNX.N'
p904
I729
sS'ICO.N'
p905
I647
sS'GS.N'
p906
I567
sS'GG.N'
p907
I542
sS'BLUD.O'
p908
I187
sS'CIEN.O'
p909
I279
sS'GE.N'
p910
I539
sS'HST.N'
p911
I630
sS'PD.N'
p912
I979
sS'OMC.N'
p913
I941
sS'ADI.N'
p914
I19
sS'DRQ.N'
p915
I420
sS'AF.N'
p916
I34
sS'FSLR.O'
p917
I527
sS'FIS.N'
p918
I505
sS'DST.N'
p919
I421
sS'HSP.N'
p920
I629
sS'DKS.N'
p921
I399
sS'ATW.N'
p922
I117
sS'VOL.N'
p923
I1322
sS'EGN.N'
p924
I447
sS'ATU.N'
p925
I116
sS'GISX.O'
p926
I1452
sS'KND.N'
p927
I728
sS'PFE.N'
p928
I990
sS'IFF.N'
p929
I652
sS'NVDA.O'
p930
I915
sS'MAT.N'
p931
I795
sS'K.N'
p932
I706
sS'ISRG.O'
p933
I678
sS'GMST.O'
p934
I554
sS'BRL.N'
p935
I208
sS'PZZA.O'
p936
I1048
sS'PBRa.N'
p937
I970
sS'GAP.N'
p938
I532
sS'FII.N'
p939
I504
sS'HAL.N'
p940
I583
sS'BNK.N'
p941
I196
sS'QCOM.O'
p942
I1050
sS'UVN.N'
p943
I1311
sS'BNI.N'
p944
I195
sS'GGB.N'
p945
I543
sS'TLM.N'
p946
I1241
sS'BIDU.O'
p947
I174
sS'FLR.N'
p948
I513
sS'MCGC.O'
p949
I801
sS'TLK.N'
p950
I1240
sS'BA.N'
p951
I139
sS'PCLN.O'
p952
I976
sS'ACS.N'
p953
I14
sS'WGO.N'
p954
I1350
sS'MTU.N'
p955
I1529
sS'KEY.N'
p956
I715
sS'WAG.N'
p957
I1334
sS'AZO.N'
p958
I137
sS'PKX.N'
p959
I1003
sS'RAI.N'
p960
I1055
sS'JEC.N'
p961
I694
sS'PHM.N'
p962
I998
sS'AT.N'
p963
I108
sS'FIG.N'
p964
I1525
sS'ATO.N'
p965
I113
sS'CNH.N'
p966
I1426
sS'GI.N'
p967
I546
sS'OMM.N'
p968
I944
sS'SEPR.O'
p969
I1120
sS'HCR.N'
p970
I592
sS'PAA.N'
p971
I1509
sS'JLL.N'
p972
I698
sS'STJ.N'
p973
I1181
sS'PAC.N'
p974
I1419
sS'HSIC.O'
p975
I628
sS'ALK.N'
p976
I61
sS'BLG.N'
p977
I184
sS'OPXT.O'
p978
I1538
sS'AMD.N'
p979
I70
sS'MON.N'
p980
I841
sS'LXK.N'
p981
I785
sS'HOG.N'
p982
I614
sS'PFS.N'
p983
I1439
sS'URS.N'
p984
I1302
sS'AAI.N'
p985
I1
sS'SNY.N'
p986
I1162
sS'AMP.N'
p987
I78
sS'CEC.N'
p988
I1451
sS'CX.N'
p989
I370
sS'LUK.N'
p990
I781
sS'CKR.N'
p991
I284
sS'VRGY.O'
p992
I1324
sS'HSC.N'
p993
I627
sS'NMR.N'
p994
I893
sS'BUCY.O'
p995
I216
sS'TQNT.O'
p996
I1252
sS'ITW.N'
p997
I683
sS'NFS.N'
p998
I882
sS'ARW.N'
p999
I101
sS'PALM.O'
p1000
I963
sS'PCU.N'
p1001
I978
sS'DRC.N'
p1002
I415
sS'ATHR.O'
p1003
I109
sS'PAY.N'
p1004
I965
sS'MRX.N'
p1005
I849
sS'PHG.N'
p1006
I996
sS'PCAR.O'
p1007
I972
sS'TKR.N'
p1008
I1237
sS'LPX.N'
p1009
I772
sS'SIE.N'
p1010
I1132
sS'GCO.N'
p1011
I535
sS'MR.N'
p1012
I844
sS'IPG.N'
p1013
I670
sS'JNPR.O'
p1014
I701
sS'SKS.N'
p1015
I1142
sS'TRB.N'
p1016
I1254
sS'ARE.N'
p1017
I99
sS'TDW.N'
p1018
I1212
sS'SINA.O'
p1019
I1136
sS'MDRX.O'
p1020
I809
sS'FRT.N'
p1021
I525
sS'NLY.N'
p1022
I892
sS'CDNS.O'
p1023
I250
sS'USNA.O'
p1024
I1555
sS'BFb.N'
p1025
I164
sS'BEC.N'
p1026
I158
sS'NCX.N'
p1027
I875
sS'NFG.N'
p1028
I879
sS'SRZ.N'
p1029
I1175
sS'CR.N'
p1030
I335
sS'BOBJ.O'
p1031
I197
sS'KSWS.O'
p1032
I1444
sS'UCO.N'
p1033
I1287
sS'VRSN.O'
p1034
I1325
sS'CLE.N'
p1035
I288
sS'DOX.N'
p1036
I411
sS'CYTC.O'
p1037
I377
sS'CFR.N'
p1038
I265
sS'OXPS.O'
p1039
I959
sS'CCMP.O'
p1040
I247
sS'SFC.N'
p1041
I1121
sS'TDY.N'
p1042
I1446
sS'FMCN.O'
p1043
I516
sS'BCO.N'
p1044
I149
sS'SKYF.O'
p1045
I1144
sS'DPZ.N'
p1046
I413
sS'STLD.O'
p1047
I1182
sS'HSY.N'
p1048
I631
sS'TAP.N'
p1049
I1208
sS'SVNT.O'
p1050
I1416
sS'RPM.N'
p1051
I1084
sS'LSCC.O'
p1052
I775
sS'TIBX.O'
p1053
I1229
sS'CCL.N'
p1054
I246
sS'CKFR.O'
p1055
I282
sS'LFC.N'
p1056
I754
sS'HNT.N'
p1057
I612
sS'SLR.N'
p1058
I1150
sS'GBBK.O'
p1059
I534
sS'SFI.N'
p1060
I1123
sS'IPS.N'
p1061
I671
sS'HTZ.N'
p1062
I633
sS'ITRI.O'
p1063
I682
sS'PNK.N'
p1064
I1016
sS'XTO.N'
p1065
I1387
sS'BJ.N'
p1066
I177
sS'AMGN.O'
p1067
I74
sS'LDG.N'
p1068
I747
sS'BMET.O'
p1069
I190
sS'TRV.N'
p1070
I1517
sS'MINI.O'
p1071
I1489
sS'NWY.N'
p1072
I920
sS'CNQ.N'
p1073
I312
sS'CNW.N'
p1074
I314
sS'LOGI.O'
p1075
I1528
sS'CVH.N'
p1076
I366
sS'INFA.O'
p1077
I661
sS'CCJ.N'
p1078
I244
sS'CREE.O'
p1079
I338
sS'JKHY.O'
p1080
I697
sS'DOV.N'
p1081
I409
sS'NNN.N'
p1082
I896
sS'SNPS.O'
p1083
I1161
sS'LI.N'
p1084
I758
sS'NITE.O'
p1085
I887
sS'SSI.N'
p1086
I1177
sS'OCN.N'
p1087
I929
sS'GDP.N'
p1088
I538
sS'TUES.O'
p1089
I1273
sS'ZZ.N'
p1090
I1398
sS'GRA.N'
p1091
I565
sS'VFC.N'
p1092
I1315
sS'DQE.N'
p1093
I414
sS'BSX.N'
p1094
I214
sS'WERN.O'
p1095
I1346
sS'ALXN.O'
p1096
I68
sS'DIGE.O'
p1097
I394
sS'CLS.N'
p1098
I291
sS'GNA.N'
p1099
I556
sS'CTSH.O'
p1100
I357
sS'ANDW.O'
p1101
I85
sS'IKN.N'
p1102
I655
sS'DPL.N'
p1103
I412
sS'HOLX.O'
p1104
I615
sS'CG.N'
p1105
I266
sS'RS.N'
p1106
I1086
sS'PLCM.O'
p1107
I1007
sS'BP.N'
p1108
I202
sS'CE.N'
p1109
I253
sS'MAN.N'
p1110
I792
sS'INFY.O'
p1111
I662
sS'DDS.N'
p1112
I385
sS'WTR.N'
p1113
I1371
sS'EPIC.O'
p1114
I466
sS'LH.N'
p1115
I756
sS'RJET.O'
p1116
I1515
sS'HAS.N'
p1117
I585
sS'GIS.N'
p1118
I548
sS'HW.N'
p1119
I638
sS'OMTR.O'
p1120
I945
sS'LXP.N'
p1121
I786
sS'CNC.N'
p1122
I306
sS'ACL.N'
p1123
I13
sS'MCO.N'
p1124
I804
sS'MEDI.O'
p1125
I812
sS'PMTI.O'
p1126
I1014
sS'TIE.N'
p1127
I1230
sS'DIOD.O'
p1128
I395
sS'CI.N'
p1129
I277
sS'HLT.N'
p1130
I604
sS'BKC.N'
p1131
I180
sS'KRON.O'
p1132
I1453
sS'SYX.N'
p1133
I1430
sS'HIBB.O'
p1134
I1488
sS'MOLX.O'
p1135
I840
sS'KNXA.O'
p1136
I1438
sS'NEM.N'
p1137
I878
sS'NSR.N'
p1138
I906
sS'FCX.N'
p1139
I493
sS'RBC.N'
p1140
I1056
sS'LWSN.O'
p1141
I784
sS'HIG.N'
p1142
I598
sS'FNFG.O'
p1143
I520
sS'SRE.N'
p1144
I1173
sS'OCR.N'
p1145
I930
sS'IT.N'
p1146
I679
sS'ECA.N'
p1147
I436
sS'ING.N'
p1148
I663
sS'MCK.N'
p1149
I803
sS'DSW.N'
p1150
I422
sS'IP.N'
p1151
I668
sS'CS.N'
p1152
I346
sS'UHS.N'
p1153
I1290
sS'PAAS.O'
p1154
I961
sS'MGLN.O'
p1155
I822
sS'FMX.N'
p1156
I518
sS'ANF.N'
p1157
I86
sS'PKG.N'
p1158
I1001
sS'FORM.O'
p1159
I522
sS'ORCL.O'
p1160
I951
sS'DJ.N'
p1161
I398
sS'TECD.O'
p1162
I1214
sS'CDWC.O'
p1163
I252
sS'HRS.N'
p1164
I626
sS'SWKS.O'
p1165
I1196
sS'WOR.N'
p1166
I1363
sS'ROP.N'
p1167
I1082
sS'AHT.N'
p1168
I47
sS'PTEN.O'
p1169
I1039
sS'CQB.N'
p1170
I334
sS'HLIT.O'
p1171
I1460
sS'TTEK.O'
p1172
I1269
sS'JAH.N'
p1173
I686
sS'ASBC.O'
p1174
I104
sS'CTCM.O'
p1175
I354
sS'JBHT.O'
p1176
I687
sS'TSCO.O'
p1177
I1262
sS'BMS.N'
p1178
I193
sS'EAGL.O'
p1179
I432
sS'PRU.N'
p1180
I1032
sS'SAY.N'
p1181
I1103
sS'PBY.N'
p1182
I971
sS'GILD.O'
p1183
I547
sS'EE.N'
p1184
I442
sS'SBUX.O'
p1185
I1108
sS'UTX.N'
p1186
I1310
sS'NXL.N'
p1187
I923
sS'MOGN.O'
p1188
I839
sS'VNDA.O'
p1189
I1449
sS'CHD.N'
p1190
I268
sS'RGS.N'
p1191
I1072
sS'DTG.N'
p1192
I424
sS'BRKL.O'
p1193
I206
sS'AQNT.O'
p1194
I97
sS'STKL.O'
p1195
I1491
sS'DTE.N'
p1196
I423
sS'NX.N'
p1197
I921
sS'KTC.N'
p1198
I739
sS'OSI.N'
p1199
I954
sS'SYMC.O'
p1200
I1203
sS'CSL.N'
p1201
I1558
sS'AUY.N'
p1202
I120
sS'OSK.N'
p1203
I956
sS'AET.N'
p1204
I33
sS'BEAV.O'
p1205
I157
sS'EXR.N'
p1206
I485
sS'TRID.O'
p1207
I1255
sS'HXL.N'
p1208
I640
sS'AEL.N'
p1209
I29
sS'AXL.N'
p1210
I131
sS'MMM.N'
p1211
I836
sS'HUN.N'
p1212
I637
sS'XMSR.O'
p1213
I1385
sS'INTU.O'
p1214
I666
sS'MMC.N'
p1215
I835
sS'CVS.N'
p1216
I367
sS'TAM.N'
p1217
I1207
sS'ELY.N'
p1218
I455
sS'NJR.N'
p1219
I888
sS'ATPG.O'
p1220
I114
sS'PGNX.O'
p1221
I1539
sS'TMX.N'
p1222
I1245
sS'CFC.N'
p1223
I264
sS'HPC.N'
p1224
I621
sS'COG.N'
p1225
I317
sS'WEBX.O'
p1226
I1344
sS'COGT.O'
p1227
I319
sS'LEE.N'
p1228
I750
sS'IBN.N'
p1229
I646
sS'MLI.N'
p1230
I831
sS'KDN.N'
p1231
I711
sS'BAC.N'
p1232
I140
sS'AV.N'
p1233
I121
sS'UNT.N'
p1234
I1297
sS'MWAb.N'
p1235
I864
sS'ZGEN.O'
p1236
I1391
sS'STEI.O'
p1237
I1179
sS'FHN.N'
p1238
I502
sS'MLS.N'
p1239
I834
sS'CSX.N'
p1240
I351
sS'EQ.N'
p1241
I467
sS'TI.N'
p1242
I1530
sS'BXP.N'
p1243
I221
sS'OCAS.O'
p1244
I928
sS'SHO.N'
p1245
I1127
sS'MRO.N'
p1246
I847
sS'CTXS.O'
p1247
I360
sS'MRD.N'
p1248
I845
sS'CINF.O'
p1249
I281
sS'GLS.N'
p1250
I549
sS'TM.N'
p1251
I1242
sS'DEI.N'
p1252
I387
sS'MATK.O'
p1253
I796
sS'GDI.N'
p1254
I537
sS'DRI.N'
p1255
I418
sS'LOW.N'
p1256
I769
sS'DELL.O'
p1257
I388
sS'OMG.N'
p1258
I942
sS'WDR.N'
p1259
I1343
sS'COO.N'
p1260
I324
sS'SAH.N'
p1261
I1100
sS'CHIC.O'
p1262
I271
sS'PTNR.O'
p1263
I1454
sS'APH.N'
p1264
I93
sS'APD.N'
p1265
I92
sS'BOT.N'
p1266
I200
sS'FIC.N'
p1267
I503
sS'VNO.N'
p1268
I1321
sS'TNE.N'
p1269
I1247
sS'NAL.N'
p1270
I869
sS'BSG.N'
p1271
I213
sS'MBI.N'
p1272
I797
sS'CVG.N'
p1273
I365
sS'OMI.N'
p1274
I943
sS'VARI.O'
p1275
I1550
sS'DEO.N'
p1276
I389
sS'REGN.O'
p1277
I1066
sS'OTEX.O'
p1278
I957
sS'PENN.O'
p1279
I985
sS'AVT.N'
p1280
I126
sS'CAO.N'
p1281
I231
sS'GPN.N'
p1282
I562
sS'RVBD.O'
p1283
I1092
sS'IAG.N'
p1284
I644
sS'ROK.N'
p1285
I1081
sS'LYV.N'
p1286
I788
sS'MUR.N'
p1287
I861
sS'UL.N'
p1288
I1291
sS'RVI.N'
p1289
I1093
sS'BLK.N'
p1290
I1417
sS'PSYS.O'
p1291
I1038
sS'UN.N'
p1292
I1292
sS'UB.N'
p1293
I1285
sS'PSUN.O'
p1294
I1037
sS'PACR.O'
p1295
I962
sS'JBX.N'
p1296
I690
sS'LRY.N'
p1297
I774
sS'DHR.N'
p1298
I393
sS'PTRY.O'
p1299
I1041
sS'AVP.N'
p1300
I125
sS'AJG.N'
p1301
I54
sS'EQIX.O'
p1302
I468
sS'UNH.N'
p1303
I1294
sS'IFIN.O'
p1304
I653
sS'IFSIA.O'
p1305
I1505
sS'TUP.N'
p1306
I1274
sS'PSA.N'
p1307
I1034
sS'BOL.N'
p1308
I199
sS'ANAD.O'
p1309
I1551
sS'SNDA.O'
p1310
I1156
sS'DRE.N'
p1311
I416
sS'HPT.N'
p1312
I622
sS'FFIV.O'
p1313
I501
sS'THE.N'
p1314
I1224
sS'SAF.N'
p1315
I1098
sS'UGI.N'
p1316
I1289
sS'KR.N'
p1317
I733
sS'SVVS.O'
p1318
I1193
sS'SUG.N'
p1319
I1190
sS'SAP.N'
p1320
I1101
sS'SOV.N'
p1321
I1167
sS'DLM.N'
p1322
I401
sS'EPD.N'
p1323
I465
sS'SHLD.O'
p1324
I1126
sS'WBSN.O'
p1325
I1338
sS'PGR.N'
p1326
I994
sS'JOE.N'
p1327
I703
sS'CELG.O'
p1328
I257
sS'PPP.N'
p1329
I1029
sS'MSFT.O'
p1330
I852
sS'KOMG.O'
p1331
I731
sS'WW.N'
p1332
I1375
sS'COLM.O'
p1333
I322
sS'TX.N'
p1334
I1277
sS'CHAP.O'
p1335
I267
sS'WU.N'
p1336
I1374
sS'TXN.N'
p1337
I1279
sS'EWBC.O'
p1338
I480
sS'NETC.O'
p1339
I1520
sS'AXS.N'
p1340
I133
sS'STR.N'
p1341
I1186
sS'PXR.N'
p1342
I1447
sS'KGC.N'
p1343
I719
sS'MWV.N'
p1344
I865
sS'ANSS.O'
p1345
I1409
sS'CBD.N'
p1346
I1511
sS'HLX.N'
p1347
I605
sS'JCG.N'
p1348
I691
sS'SIVB.O'
p1349
I1138
sS'OPSW.O'
p1350
I949
sS'MSCC.O'
p1351
I851
sS'SXT.N'
p1352
I1485
sS'TEVA.O'
p1353
I1220
sS'MENT.O'
p1354
I816
sS'JBL.N'
p1355
I688
sS'HET.N'
p1356
I595
sS'USB.N'
p1357
I1303
sS'CSCO.O'
p1358
I347
sS'SBAC.O'
p1359
I1104
sS'CPX.N'
p1360
I333
sS'STN.N'
p1361
I1184
sS'RTI.N'
p1362
I1089
sS'NUS.N'
p1363
I1471
sS'MOH.N'
p1364
I1415
sS'TSO.N'
p1365
I1266
sS'KWK.N'
p1366
I741
sS'VZ.N'
p1367
I1332
sS'AGO.N'
p1368
I1542
sS'NFLX.O'
p1369
I880
sS'HYSL.O'
p1370
I643
sS'PXP.N'
p1371
I1046
sS'STT.N'
p1372
I1187
sS'NYT.N'
p1373
I926
sS'LPL.N'
p1374
I770
sS'NUE.N'
p1375
I914
sS'BLC.N'
p1376
I183
sS'AMX.N'
p1377
I81
sS'WM.N'
p1378
I1355
sS'FLEX.O'
p1379
I509
sS'MPEL.O'
p1380
I1413
sS'CMX.N'
p1381
I304
sS'MLHR.O'
p1382
I830
sS'MKSI.O'
p1383
I829
sS'JH.N'
p1384
I696
sS'ENN.N'
p1385
I461
sS'KMT.N'
p1386
I726
sS'ORI.N'
p1387
I953
sS'KLAC.O'
p1388
I722
sS'EDS.N'
p1389
I440
sS'WY.N'
p1390
I1378
sS'APOL.O'
p1391
I95
sS'ENH.N'
p1392
I460
sS'BJS.N'
p1393
I178
sS'ILA.N'
p1394
I656
sS'TEF.N'
p1395
I1215
sS'COP.N'
p1396
I325
sS'GTW.N'
p1397
I574
sS'CRR.N'
p1398
I343
sS'ATML.O'
p1399
I112
sS'TSM.N'
p1400
I1264
sS'TER.N'
p1401
I1219
sS'TXRH.O'
p1402
I1280
sS'FDO.N'
p1403
I495
sS'CPB.N'
p1404
I329
sS'MTG.N'
p1405
I856
sS'TXT.N'
p1406
I1281
sS'OVTI.O'
p1407
I958
sS'UDR.N'
p1408
I1553
sS'RDSa.N'
p1409
I1061
sS'CHKP.O'
p1410
I1522
sS'CBL.N'
p1411
I238
sS'NXG.A'
p1412
I922
sS'NCR.N'
p1413
I874
sS'HMN.N'
p1414
I610
sS'KMP.N'
p1415
I725
sS'APC.N'
p1416
I91
sS'GME.N'
p1417
I552
sS'CPT.N'
p1418
I331
sS'PCG.N'
p1419
I973
sS'APA.N'
p1420
I90
sS'GTI.N'
p1421
I572
sS'HGSI.O'
p1422
I597
sS'ARG.N'
p1423
I100
sS'POR.N'
p1424
I1464
sS'CMP.N'
p1425
I301
sS'BRKS.O'
p1426
I207
sS'SWFT.O'
p1427
I1195
sS'CNA.N'
p1428
I305
sS'TJX.N'
p1429
I1233
sS'NCMI.O'
p1430
I1519
sS'FDC.N'
p1431
I494
sS'CHU.N'
p1432
I276
sS'VTR.N'
p1433
I1330
sS'BCE.N'
p1434
I148
sS'STZ.N'
p1435
I1189
sS'KYPH.O'
p1436
I742
sS'AGU.N'
p1437
I42
sS'ERIC.O'
p1438
I471
sS'TSU.N'
p1439
I1267
sS'KMB.N'
p1440
I723
sS'BT.N'
p1441
I215
sS'ISLE.O'
p1442
I677
sS'PEI.N'
p1443
I984
sS'TRST.O'
p1444
I1448
sS'EXEL.O'
p1445
I482
sS'NVS.N'
p1446
I917
sS'BCS.N'
p1447
I151
sS'ARXX.O'
p1448
I103
sS'GXP.N'
p1449
I579
sS'SKM.N'
p1450
I1141
sS'LLTC.O'
p1451
I762
sS'ZUMZ.O'
p1452
I1397
sS'CNS.N'
p1453
I313
sS'WSM.N'
p1454
I1367
sS'BKMU.O'
p1455
I1547
sS'ROST.O'
p1456
I1083
sS'VRX.N'
p1457
I1327
sS'EAT.N'
p1458
I434
sS'HLF.N'
p1459
I603
sS'FS.N'
p1460
I1512
sS'WSO.N'
p1461
I1368
sS'CNE.N'
p1462
I307
sS'UPS.N'
p1463
I1299
sS'HBC.N'
p1464
I587
sS'DBD.N'
p1465
I381
sS'ADP.N'
p1466
I21
sS'COH.N'
p1467
I320
sS'AG.N'
p1468
I39
sS'SSW.N'
p1469
I1445
sS'PEG.N'
p1470
I983
sS'FE.N'
p1471
I499
sS'PLLL.O'
p1472
I1009
sS'DRIV.O'
p1473
I419
sS'HOT.N'
p1474
I618
sS'H.N'
p1475
I582
sS'CMGb.N'
p1476
I299
sS'WDC.N'
p1477
I1342
sS'HTLD.O'
p1478
I632
sS'BRY.N'
p1479
I211
sS'AMED.O'
p1480
I72
sS'IN.N'
p1481
I660
sS'AFR.N'
p1482
I38
sS'HWAY.O'
p1483
I639
sS'RCII.O'
p1484
I1057
sS'PG.N'
p1485
I992
sS'TCB.N'
p1486
I1210
sS'OFC.N'
p1487
I933
sS'AMMD.O'
p1488
I77
sS'FMER.O'
p1489
I517
sS'MKC.N'
p1490
I828
sS'FCN.N'
p1491
I491
sS'BRE.N'
p1492
I205
sS'COMS.O'
p1493
I323
sS'WAB.N'
p1494
I1333
sS'GT.N'
p1495
I571
sS'ASPV.O'
p1496
I1473
sS'CMED.O'
p1497
I297
sS'FCH.N'
p1498
I489
sS'JPM.N'
p1499
I704
sS'WGL.N'
p1500
I1349
sS'KEX.N'
p1501
I714
sS'MAA.N'
p1502
I1418
sS'AMTD.O'
p1503
I80
sS'CEN.N'
p1504
I258
sS'CEPH.O'
p1505
I261
sS'MDP.N'
p1506
I808
sS'KEP.N'
p1507
I713
sS'ADCT.O'
p1508
I18
sS'AU.N'
p1509
I118
sS'PHH.N'
p1510
I997
sS'CNI.N'
p1511
I309
sS'KO.N'
p1512
I730
sS'ITC.N'
p1513
I1437
sS'FCL.N'
p1514
I490
sS'LZ.N'
p1515
I789
sS'SCRX.O'
p1516
I1114
sS'XEL.N'
p1517
I1383
sS'STI.N'
p1518
I1180
sS'MO.N'
p1519
I838
sS'CC.N'
p1520
I243
sS'MA.N'
p1521
I790
sS'BYD.N'
p1522
I222
sS'CA.N'
p1523
I223
sS'CBSS.O'
p1524
I240
sS'GFF.N'
p1525
I1463
sS'SCG.N'
p1526
I1109
sS'UTIW.O'
p1527
I1309
sS'PDLI.O'
p1528
I982
sS'TPX.N'
p1529
I1251
sS'CY.N'
p1530
I372
sS'FCF.N'
p1531
I1434
sS'JNS.N'
p1532
I702
sS'SLB.N'
p1533
I1147
sS'BRS.N'
p1534
I210
sS'ACH.N'
p1535
I12
sS'MAS.N'
p1536
I794
sS'NST.N'
p1537
I907
sS'CLI.N'
p1538
I289
sS'EFX.N'
p1539
I446
sS'ACF.N'
p1540
I11
sS'HUBG.O'
p1541
I634
sS'ZMH.N'
p1542
I1394
sS'LZB.N'
p1543
I1422
sS'USPI.O'
p1544
I1305
sS'MSM.N'
p1545
I853
sS'SYT.N'
p1546
I1407
sS'HE.N'
p1547
I1514
sS'ODP.N'
p1548
I932
sS'HC.N'
p1549
I589
sS'WAT.N'
p1550
I1335
sS'T.N'
p1551
I1206
sS'STP.N'
p1552
I1185
sS'TWB.N'
p1553
I1276
sS'EQR.N'
p1554
I469
sS'HME.N'
p1555
I609
sS'ELOS.O'
p1556
I452
sS'PPL.N'
p1557
I1028
sS'SCI.N'
p1558
I1113
sS'AOS.N'
p1559
I89
sS'SID.N'
p1560
I1131
sS'WBS.N'
p1561
I1337
s.