(dp0
S'SCS.N'
p1
I454
sS'RGA.N'
p2
I1787
sS'SNN.N'
p3
I514
sS'BA.N'
p4
I998
sS'PNR.N'
p5
I321
sS'ATR.N'
p6
I974
sS'AAP.N'
p7
I840
sS'RGC.N'
p8
I391
sS'IR.N'
p9
I1664
sS'TXMD.A'
p10
I671
sS'LAZ.N'
p11
I1742
sS'UFS.N'
p12
I683
sS'MS.N'
p13
I129
sS'MU.O'
p14
I145
sS'NDAQ.O'
p15
I166
sS'DAN.N'
p16
I1269
sS'CXP.N'
p17
I1260
sS'SKX.N'
p18
I495
sS'VSTO.N'
p19
I738
sS'SKYW.O'
p20
I496
sS'CW.N'
p21
I1770
sS'RPT.N'
p22
I417
sS'LVS.N'
p23
I44
sS'SIX.N'
p24
I489
sS'SAGE.O'
p25
I433
sS'ALL.N'
p26
I912
sS'RXN.N'
p27
I426
sS'EGRX.O'
p28
I1345
sS'ACOR.O'
p29
I862
sS'SNH.O'
p30
I512
sS'PRGO.N'
p31
I335
sS'EXP.N'
p32
I1404
sS'ODFL.O'
p33
I231
sS'CIG.N'
p34
I1166
sS'CFG.N'
p35
I1146
sS'EMR.N'
p36
I1355
sS'LNC.N'
p37
I16
sS'EBIX.O'
p38
I1329
sS'UTHR.O'
p39
I706
sS'CUZ.N'
p40
I1248
sS'TREE.O'
p41
I632
sS'URBN.O'
p42
I700
sS'SPLS.O'
p43
I526
sS'MFA.N'
p44
I83
sS'ONCE.O'
p45
I249
sS'PWR.N'
p46
I357
sS'PODD.O'
p47
I324
sS'MFC.N'
p48
I84
sS'BEL.N'
p49
I1025
sS'TFX.N'
p50
I1777
sS'SF.N'
p51
I465
sS'TPC.N'
p52
I628
sS'SJM.N'
p53
I491
sS'EVH.N'
p54
I1395
sS'SEM.N'
p55
I461
sS'PBYI.N'
p56
I276
sS'SNA.N'
p57
I509
sS'NVO.N'
p58
I212
sS'INVN.N'
p59
I1656
sS'BKS.N'
p60
I1048
sS'RNG.N'
p61
I406
sS'BKU.N'
p62
I1049
sS'TWX.N'
p63
I669
sS'STNG.N'
p64
I556
sS'FRGI.O'
p65
I1470
sS'EMN.N'
p66
I1354
sS'DLB.N'
p67
I1298
sS'AFL.N'
p68
I884
sS'EL.N'
p69
I1348
sS'PDS.N'
p70
I285
sS'VLO.N'
p71
I723
sS'CLB.N'
p72
I1171
sS'CNSL.O'
p73
I1195
sS'GWW.N'
p74
I1546
sS'MPLX.N'
p75
I121
sS'REXR.N'
p76
I389
sS'HAE.N'
p77
I1550
sS'AIZ.N'
p78
I898
sS'SKT.N'
p79
I494
sS'BVN.N'
p80
I1088
sS'BBY.N'
p81
I1014
sS'XXIA.O'
p82
I817
sS'ABCO.O'
p83
I845
sS'MAR.O'
p84
I57
sS'DVA.N'
p85
I1321
sS'SJI.N'
p86
I490
sS'AIR.N'
p87
I1767
sS'RMD.N'
p88
I405
sS'AKR.N'
p89
I902
sS'SYRG.A'
p90
I581
sS'ALB.N'
p91
I906
sS'KATE.N'
p92
I1702
sS'UAL.N'
p93
I675
sS'ARRS.O'
p94
I963
sS'CERN.O'
p95
I1143
sS'CVI.N'
p96
I1253
sS'TRI.N'
p97
I634
sS'ZNGA.O'
p98
I835
sS'WRK.N'
p99
I790
sS'HASI.N'
p100
I1556
sS'WRI.N'
p101
I789
sS'DOW.N'
p102
I1309
sS'PRAA.O'
p103
I333
sS'GLW.N'
p104
I1509
sS'HON.N'
p105
I1589
sS'VEDL.N'
p106
I1785
sS'FNV.N'
p107
I1460
sS'ABBV.N'
p108
I843
sS'DECK.N'
p109
I1280
sS'DCT.N'
p110
I1275
sS'LII.N'
p111
I3
sS'HTA.N'
p112
I1610
sS'PEGI.O'
p113
I290
sS'NOMD.N'
p114
I191
sS'DAR.N'
p115
I1270
sS'HRC.N'
p116
I1599
sS'EVR.N'
p117
I1397
sS'IDCC.O'
p118
I1631
sS'AWK.N'
p119
I989
sS'KCG.N'
p120
I1705
sS'TCK.N'
p121
I592
sS'FRC.N'
p122
I1469
sS'WRE.N'
p123
I788
sS'RARE.O'
p124
I376
sS'CVA.N'
p125
I1249
sS'POOL.O'
p126
I326
sS'RHI.N'
p127
I394
sS'ALGN.O'
p128
I909
sS'TMH.N'
p129
I621
sS'SLG.N'
p130
I501
sS'JOY.N'
p131
I1696
sS'INFN.O'
p132
I1643
sS'PBI.N'
p133
I273
sS'TVPT.N'
p134
I666
sS'YHOO.O'
p135
I820
sS'SSP.N'
p136
I542
sS'E.N'
p137
I1758
sS'NLSN.N'
p138
I185
sS'DNKN.O'
p139
I1303
sS'NAT.N'
p140
I155
sS'D.N'
p141
I1267
sS'WUBA.N'
p142
I796
sS'FNB.N'
p143
I1456
sS'IRBT.O'
p144
I1665
sS'CAG.N'
p145
I1103
sS'GIII.O'
p146
I1501
sS'WOOF.O'
p147
I780
sS'RE.N'
p148
I1766
sS'MET.N'
p149
I82
sS'KSS.N'
p150
I1735
sS'ATSG.O'
p151
I975
sS'OLN.N'
p152
I243
sS'NGD.A'
p153
I178
sS'MNST.O'
p154
I111
sS'SONC.O'
p155
I521
sS'GLPI.O'
p156
I1508
sS'KSU.N'
p157
I1736
sS'AVB.N'
p158
I982
sS'FOE.N'
p159
I1461
sS'TTS.O'
p160
I662
sS'MRVL.O'
p161
I128
sS'CLX.N'
p162
I1178
sS'THO.N'
p163
I611
sS'ITRI.O'
p164
I1675
sS'HAR.N'
p165
I1554
sS'SAN.N'
p166
I435
sS'WAIR.N'
p167
I746
sS'NGL.N'
p168
I179
sS'HBI.N'
p169
I1560
sS'CLVS.O'
p170
I1177
sS'FCAU.N'
p171
I1417
sS'WEC.N'
p172
I761
sS'XLRN.O'
p173
I810
sS'PDCO.O'
p174
I283
sS'OAS.N'
p175
I228
sS'MKTX.O'
p176
I99
sS'CTRP.O'
p177
I1243
sS'ITUB.N'
p178
I1677
sS'ULTA.O'
p179
I688
sS'NHI.N'
p180
I180
sS'JUNO.O'
p181
I1698
sS'CIB.N'
p182
I1164
sS'MASI.O'
p183
I59
sS'ELLI.N'
p184
I1349
sS'OII.N'
p185
I237
sS'UBSI.O'
p186
I679
sS'LSXMK.O'
p187
I37
sS'BITA.N'
p188
I1042
sS'AMZN.O'
p189
I937
sS'IMAX.N'
p190
I1639
sS'PLAB.O'
p191
I310
sS'NXTM.O'
p192
I222
sS'CSII.O'
p193
I1232
sS'NMBL.N'
p194
I187
sS'EXPD.O'
p195
I1405
sS'ARMK.N'
p196
I960
sS'PANW.N'
p197
I265
sS'TPH.N'
p198
I629
sS'MNRO.O'
p199
I110
sS'WFT.N'
p200
I767
sS'PACB.O'
p201
I261
sS'HPP.N'
p202
I1593
sS'BGG.N'
p203
I1033
sS'GGAL.O'
p204
I1498
sS'WCG.N'
p205
I755
sS'TV.N'
p206
I665
sS'MRK.N'
p207
I126
sS'DO.N'
p208
I1306
sS'MUSA.N'
p209
I147
sS'ASX.N'
p210
I969
sS'VR.N'
p211
I731
sS'THC.N'
p212
I610
sS'SUM.N'
p213
I564
sS'FGEN.O'
p214
I1430
sS'DG.N'
p215
I1288
sS'WYN.N'
p216
I802
sS'VVC.N'
p217
I740
sS'FOXA.O'
p218
I1466
sS'ACAD.O'
p219
I852
sS'AGRO.N'
p220
I893
sS'DYN.N'
p221
I1325
sS'CUDA.N'
p222
I1247
sS'NOV.N'
p223
I192
sS'TGT.N'
p224
I609
sS'SC.N'
p225
I447
sS'ABB.N'
p226
I842
sS'MRCY.O'
p227
I125
sS'KIM.N'
p228
I1713
sS'HBAN.O'
p229
I1558
sS'WWD.O'
p230
I798
sS'SPNC.O'
p231
I528
sS'CHK.N'
p232
I1153
sS'NDSN.O'
p233
I167
sS'UNFI.O'
p234
I693
sS'SO.N'
p235
I519
sS'POT.N'
p236
I329
sS'RYN.N'
p237
I429
sS'BGC.N'
p238
I1031
sS'FLIR.O'
p239
I1445
sS'EXPE.O'
p240
I1406
sS'SWK.N'
p241
I570
sS'CHS.N'
p242
I1159
sS'SEAS.N'
p243
I458
sS'LYB.N'
p244
I47
sS'GSK.N'
p245
I1537
sS'TEL.N'
p246
I601
sS'WCC.N'
p247
I754
sS'LSXMA.O'
p248
I36
sS'PYPL.O'
p249
I360
sS'ECR.N'
p250
I1334
sS'FIVN.O'
p251
I1441
sS'FTI.N'
p252
I1478
sS'HCLP.N'
p253
I1562
sS'CORT.O'
p254
I1780
sS'BANR.O'
p255
I1006
sS'ROIC.O'
p256
I409
sS'FSS.N'
p257
I1477
sS'FISV.O'
p258
I1437
sS'CBT.N'
p259
I1126
sS'FDS.N'
p260
I1424
sS'RRC.N'
p261
I418
sS'NE.N'
p262
I168
sS'ED.N'
p263
I1335
sS'BDN.N'
p264
I1021
sS'BERY.N'
p265
I1027
sS'GWB.N'
p266
I1542
sS'MPWR.O'
p267
I123
sS'SPR.N'
p268
I529
sS'SAFM.O'
p269
I432
sS'NKE.N'
p270
I183
sS'MXL.N'
p271
I151
sS'NG.A'
p272
I177
sS'AXP.N'
p273
I992
sS'KITE.O'
p274
I1714
sS'IRM.N'
p275
I1668
sS'GWPH.O'
p276
I1543
sS'BHI.N'
p277
I1036
sS'HLS.N'
p278
I1579
sS'ASB.N'
p279
I965
sS'TSE.N'
p280
I648
sS'ORCL.N'
p281
I252
sS'PBR.N'
p282
I274
sS'ISIL.O'
p283
I1671
sS'SU.N'
p284
I562
sS'COF.N'
p285
I1196
sS'KLXI.O'
p286
I1717
sS'BBL.N'
p287
I1010
sS'XHR.N'
p288
I807
sS'IDXX.O'
p289
I1633
sS'BSBR.N'
p290
I1078
sS'HUM.N'
p291
I1614
sS'TSS.N'
p292
I656
sS'MLNX.O'
p293
I102
sS'EBS.N'
p294
I1330
sS'LAMR.O'
p295
I1741
sS'RJF.N'
p296
I400
sS'DEPO.O'
p297
I1284
sS'TRGP.N'
p298
I633
sS'GWRE.N'
p299
I1545
sS'SSYS.O'
p300
I544
sS'COLM.O'
p301
I1201
sS'G.N'
p302
I1484
sS'R.N'
p303
I372
sS'MYGN.O'
p304
I153
sS'ODP.O'
p305
I232
sS'ABT.N'
p306
I849
sS'AES.N'
p307
I880
sS'MTOR.N'
p308
I141
sS'CAT.N'
p309
I1112
sS'DLPH.N'
p310
I1299
sS'ENR.N'
p311
I1362
sS'ON.O'
p312
I247
sS'QSII.O'
p313
I367
sS'SNCR.O'
p314
I510
sS'MRC.N'
p315
I124
sS'NSAM.N'
p316
I198
sS'TEX.N'
p317
I606
sS'GRA.N'
p318
I1530
sS'TRCO.N'
p319
I631
sS'COT.N'
p320
I1208
sS'GPRE.O'
p321
I1527
sS'DRH.N'
p322
I1314
sS'TGNA.N'
p323
I608
sS'AEE.N'
p324
I872
sS'ARCC.O'
p325
I956
sS'PRAH.O'
p326
I334
sS'RCL.N'
p327
I380
sS'GPC.N'
p328
I1522
sS'COL.N'
p329
I1199
sS'OMF.N'
p330
I245
sS'CRL.N'
p331
I1222
sS'SUPN.O'
p332
I566
sS'AIV.N'
p333
I897
sS'EV.N'
p334
I1393
sS'GVA.N'
p335
I1773
sS'HSNI.O'
p336
I1606
sS'TLRD.N'
p337
I620
sS'INVA.O'
p338
I1655
sS'BBT.N'
p339
I1012
sS'TSEM.O'
p340
I649
sS'TSRO.O'
p341
I655
sS'BLKB.O'
p342
I1052
sS'LILAK.O'
p343
I5
sS'EWBC.O'
p344
I1399
sS'OGE.N'
p345
I234
sS'BDX.N'
p346
I1022
sS'BHE.N'
p347
I1035
sS'NTES.O'
p348
I204
sS'RHT.N'
p349
I396
sS'QVCA.O'
p350
I371
sS'MGA.N'
p351
I86
sS'TMK.N'
p352
I622
sS'POL.N'
p353
I325
sS'PM.N'
p354
I315
sS'NTRS.O'
p355
I206
sS'VMW.N'
p356
I726
sS'FRO.N'
p357
I1471
sS'ADTN.O'
p358
I871
sS'BAK.N'
p359
I1003
sS'VALE.N'
p360
I711
sS'PPC.O'
p361
I330
sS'ELP.N'
p362
I1350
sS'LHO.N'
p363
I2
sS'WFM.O'
p364
I766
sS'ABEV.N'
p365
I846
sS'SMG.N'
p366
I507
sS'FI.N'
p367
I1432
sS'GSAT.A'
p368
I1536
sS'AMKR.O'
p369
I931
sS'KORS.N'
p370
I1726
sS'FWRD.O'
p371
I1762
sS'BGCP.O'
p372
I1032
sS'UNM.N'
p373
I695
sS'SPN.N'
p374
I527
sS'DHI.N'
p375
I1291
sS'CAB.N'
p376
I1102
sS'GPK.N'
p377
I1524
sS'TOT.N'
p378
I627
sS'DATA.N'
p379
I1271
sS'SYNT.O'
p380
I580
sS'MDT.N'
p381
I75
sS'IGT.N'
p382
I1636
sS'GLNG.O'
p383
I1507
sS'IRDM.O'
p384
I1666
sS'FINL.O'
p385
I1435
sS'ANET.N'
p386
I939
sS'KS.N'
p387
I1734
sS'RGLD.O'
p388
I393
sS'RAD.N'
p389
I374
sS'XPO.N'
p390
I814
sS'BLL.N'
p391
I1053
sS'AXTA.N'
p392
I994
sS'HCA.N'
p393
I1561
sS'BMRN.O'
p394
I1058
sS'MIC.N'
p395
I93
sS'PE.N'
p396
I286
sS'ALLE.N'
p397
I913
sS'GD.N'
p398
I1490
sS'OHI.N'
p399
I235
sS'VMC.N'
p400
I725
sS'VAL.N'
p401
I710
sS'WAFD.O'
p402
I745
sS'SGEN.O'
p403
I469
sS'FTV.N'
p404
I1481
sS'WNR.N'
p405
I779
sS'MGM.N'
p406
I88
sS'SIVB.O'
p407
I488
sS'AIRM.O'
p408
I896
sS'FLO.N'
p409
I1446
sS'EPE.N'
p410
I1370
sS'AEGN.O'
p411
I1791
sS'MMSI.O'
p412
I107
sS'EGO.N'
p413
I1344
sS'LPNT.O'
p414
I28
sS'TERP.O'
p415
I604
sS'CRZO.O'
p416
I1227
sS'LUV.N'
p417
I42
sS'BRO.N'
p418
I1075
sS'GHL.N'
p419
I1500
sS'RS.N'
p420
I420
sS'FAST.O'
p421
I1412
sS'STMP.O'
p422
I555
sS'AMBA.O'
p423
I922
sS'S.N'
p424
I430
sS'BCS.N'
p425
I1019
sS'MYCC.N'
p426
I152
sS'HIMX.O'
p427
I1575
sS'COMM.O'
p428
I1202
sS'FLS.N'
p429
I1449
sS'DLX.N'
p430
I1302
sS'STOR.N'
p431
I557
sS'HMY.N'
p432
I1584
sS'AGNC.O'
p433
I1778
sS'BBBY.O'
p434
I1008
sS'HES.N'
p435
I1570
sS'RTRX.O'
p436
I424
sS'LEN.N'
p437
I1753
sS'FAF.N'
p438
I1410
sS'C.N'
p439
I1099
sS'CE.N'
p440
I1140
sS'COLB.O'
p441
I1200
sS'UMPQ.O'
p442
I691
sS'ZION.O'
p443
I832
sS'HMC.N'
p444
I1581
sS'WPZ.N'
p445
I785
sS'NUAN.O'
p446
I207
sS'WLK.N'
p447
I772
sS'STM.N'
p448
I554
sS'IDA.N'
p449
I1763
sS'AZN.N'
p450
I996
sS'KRC.N'
p451
I1730
sS'AGN.N'
p452
I890
sS'VRTX.O'
p453
I735
sS'KRA.N'
p454
I1729
sS'BIG.N'
p455
I1040
sS'USG.N'
p456
I705
sS'CLGX.N'
p457
I1172
sS'WYNN.O'
p458
I803
sS'PLNT.N'
p459
I314
sS'AMT.N'
p460
I934
sS'UGP.N'
p461
I685
sS'AAL.O'
p462
I838
sS'NRG.N'
p463
I195
sS'NFX.N'
p464
I176
sS'BABY.O'
p465
I1000
sS'AAN.N'
p466
I839
sS'ROCK.O'
p467
I408
sS'SGMS.O'
p468
I470
sS'CVRR.N'
p469
I1255
sS'DISCK.O'
p470
I1295
sS'CAKE.O'
p471
I1106
sS'NCS.N'
p472
I165
sS'GRPN.O'
p473
I1533
sS'AME.N'
p474
I926
sS'DOC.N'
p475
I1307
sS'MAA.N'
p476
I53
sS'NTCT.O'
p477
I203
sS'PRGS.O'
p478
I336
sS'SIMO.O'
p479
I484
sS'MAC.N'
p480
I54
sS'HRB.N'
p481
I1598
sS'AXDX.O'
p482
I990
sS'CPA.N'
p483
I1211
sS'ZBRA.O'
p484
I829
sS'ADSK.O'
p485
I870
sS'MEOH.O'
p486
I81
sS'NTAP.O'
p487
I202
sS'EFII.O'
p488
I1340
sS'CBM.N'
p489
I1121
sS'BBRY.O'
p490
I1011
sS'MTZ.N'
p491
I144
sS'CFFN.O'
p492
I1145
sS'IDTI.O'
p493
I1632
sS'O.N'
p494
I226
sS'MOS.N'
p495
I118
sS'PNFP.O'
p496
I318
sS'FANG.O'
p497
I1411
sS'WNC.N'
p498
I778
sS'ORLY.O'
p499
I254
sS'BIIB.O'
p500
I1041
sS'CMI.N'
p501
I1185
sS'AFG.N'
p502
I883
sS'GIMO.N'
p503
I1504
sS'ALR.N'
p504
I916
sS'AYI.N'
p505
I1779
sS'PAYX.O'
p506
I268
sS'CMO.N'
p507
I1186
sS'CMC.N'
p508
I1181
sS'DLR.N'
p509
I1300
sS'CMA.N'
p510
I1180
sS'ACIW.O'
p511
I859
sS'ESRX.O'
p512
I1383
sS'CMG.N'
p513
I1184
sS'ARR.N'
p514
I962
sS'DISCA.O'
p515
I1294
sS'AEIS.O'
p516
I874
sS'LGND.O'
p517
I0
sS'ESRT.N'
p518
I1382
sS'RWT.N'
p519
I425
sS'GNC.N'
p520
I1513
sS'SGYP.O'
p521
I471
sS'MANH.O'
p522
I56
sS'WR.N'
p523
I786
sS'RATE.N'
p524
I377
sS'RPAI.N'
p525
I415
sS'LULU.O'
p526
I41
sS'PAH.N'
p527
I264
sS'LFL.N'
p528
I1755
sS'ETR.N'
p529
I1390
sS'FR.N'
p530
I1468
sS'MTN.N'
p531
I140
sS'YELP.N'
p532
I819
sS'ALV.N'
p533
I1788
sS'PVG.N'
p534
I353
sS'RES.N'
p535
I388
sS'LMT.N'
p536
I14
sS'FDX.N'
p537
I1425
sS'KLAC.O'
p538
I1715
sS'FIT.N'
p539
I1438
sS'UMC.N'
p540
I690
sS'CRI.N'
p541
I1221
sS'BEN.N'
p542
I1026
sS'SEE.N'
p543
I459
sS'FBHS.N'
p544
I1414
sS'LIVN.O'
p545
I7
sS'FNF.N'
p546
I1457
sS'GEL.N'
p547
I1494
sS'TTMI.O'
p548
I661
sS'ICE.N'
p549
I1628
sS'HRL.N'
p550
I1601
sS'REG.N'
p551
I386
sS'ARIA.O'
p552
I959
sS'ABMD.O'
p553
I848
sS'VIV.N'
p554
I722
sS'Z.O'
p555
I826
sS'SAVE.O'
p556
I438
sS'ADM.N'
p557
I866
sS'CLH.N'
p558
I1173
sS'NSA.N'
p559
I197
sS'HOLI.O'
p560
I1586
sS'SLM.O'
p561
I503
sS'CXO.N'
p562
I1259
sS'ETP.N'
p563
I1389
sS'XEC.N'
p564
I805
sS'VIAB.O'
p565
I719
sS'PEGA.O'
p566
I289
sS'PH.N'
p567
I302
sS'PDM.N'
p568
I284
sS'TRS.O'
p569
I1764
sS'MSFT.O'
p570
I132
sS'PF.N'
p571
I294
sS'TOL.N'
p572
I626
sS'GNW.N'
p573
I1516
sS'OUT.N'
p574
I256
sS'MCD.N'
p575
I64
sS'WST.N'
p576
I792
sS'TTC.N'
p577
I658
sS'MKSI.O'
p578
I98
sS'SSL.N'
p579
I540
sS'DIS.N'
p580
I1293
sS'BNS.N'
p581
I1061
sS'BC.N'
p582
I1015
sS'TBPH.O'
p583
I589
sS'ESS.N'
p584
I1384
sS'SFL.N'
p585
I466
sS'NUVA.O'
p586
I210
sS'FLT.N'
p587
I1450
sS'NSC.N'
p588
I199
sS'BK.N'
p589
I1044
sS'TRU.N'
p590
I643
sS'NWE.N'
p591
I216
sS'P.N'
p592
I258
sS'AWI.N'
p593
I988
sS'NSM.N'
p594
I200
sS'TCO.N'
p595
I593
sS'CNP.N'
p596
I1193
sS'LTXB.O'
p597
I39
sS'NATI.O'
p598
I156
sS'AKAM.O'
p599
I901
sS'MFS.N'
p600
I85
sS'TRQ.N'
p601
I641
sS'CCK.N'
p602
I1132
sS'HL.N'
p603
I1577
sS'KNL.N'
p604
I1723
sS'IPXL.O'
p605
I1663
sS'CSGS.O'
p606
I1231
sS'WIT.N'
p607
I770
sS'GM.N'
p608
I1510
sS'SMCI.O'
p609
I505
sS'IBKR.O'
p610
I1625
sS'WIX.O'
p611
I771
sS'PFG.N'
p612
I296
sS'SPWR.O'
p613
I531
sS'ATI.N'
p614
I972
sS'TTM.N'
p615
I660
sS'HR.N'
p616
I1597
sS'STWD.N'
p617
I559
sS'RP.O'
p618
I414
sS'CLR.N'
p619
I1176
sS'SNE.N'
p620
I511
sS'HMSY.O'
p621
I1583
sS'STAY.N'
p622
I548
sS'HP.N'
p623
I1591
sS'VLY.N'
p624
I724
sS'LEA.N'
p625
I1750
sS'NSU.A'
p626
I1776
sS'EXC.N'
p627
I1401
sS'EQY.N'
p628
I1376
sS'YRD.N'
p629
I823
sS'CF.N'
p630
I1144
sS'PNRA.O'
p631
I322
sS'JNJ.N'
p632
I1693
sS'SEP.N'
p633
I463
sS'SANM.O'
p634
I436
sS'ZG.O'
p635
I831
sS'PLCE.O'
p636
I312
sS'PXD.N'
p637
I359
sS'CCC.N'
p638
I1128
sS'EQC.N'
p639
I1372
sS'CB.N'
p640
I1116
sS'GFI.N'
p641
I1496
sS'HQY.O'
p642
I1596
sS'CCE.N'
p643
I1129
sS'LNT.N'
p644
I19
sS'ACC.N'
p645
I854
sS'AGIO.O'
p646
I889
sS'ACM.N'
p647
I860
sS'AJRD.N'
p648
I900
sS'TIF.N'
p649
I613
sS'SHOO.O'
p650
I477
sS'HDS.O'
p651
I1568
sS'CIT.N'
p652
I1169
sS'SYY.N'
p653
I583
sS'URI.N'
p654
I701
sS'SQ.N'
p655
I533
sS'RNR.N'
p656
I407
sS'BGS.N'
p657
I1034
sS'L.N'
p658
I1740
sS'CYBR.O'
p659
I1262
sS'BKD.N'
p660
I1045
sS'HOMB.O'
p661
I1588
sS'EURN.N'
p662
I1392
sS'EDU.N'
p663
I1337
sS'ENTG.O'
p664
I1364
sS'OIS.N'
p665
I238
sS'BWP.N'
p666
I1092
sS'SPGI.N'
p667
I524
sS'AAPL.O'
p668
I841
sS'ONB.O'
p669
I248
sS'TRMB.O'
p670
I636
sS'ECL.N'
p671
I1333
sS'VSH.N'
p672
I737
sS'MD.N'
p673
I68
sS'FUL.N'
p674
I1482
sS'DDD.N'
p675
I1277
sS'CL.N'
p676
I1170
sS'OKS.N'
p677
I240
sS'GOOG.O'
p678
I1519
sS'RF.N'
p679
I390
sS'SNI.O'
p680
I513
sS'DY.N'
p681
I1324
sS'SYK.N'
p682
I576
sS'A.N'
p683
I837
sS'DCI.N'
p684
I1274
sS'KHC.O'
p685
I1712
sS'CP.N'
p686
I1210
sS'NEWR.N'
p687
I173
sS'ADRO.O'
p688
I868
sS'OKE.N'
p689
I239
sS'NVRO.N'
p690
I213
sS'MCHP.O'
p691
I65
sS'KMX.N'
p692
I1721
sS'PVH.N'
p693
I354
sS'ILMN.O'
p694
I1638
sS'CPRT.O'
p695
I1216
sS'SWC.N'
p696
I567
sS'DE.N'
p697
I1279
sS'NUE.N'
p698
I208
sS'FMC.N'
p699
I1452
sS'RMBS.O'
p700
I404
sS'Q.N'
p701
I362
sS'HFC.N'
p702
I1571
sS'FITB.O'
p703
I1439
sS'MNK.N'
p704
I108
sS'WMGI.O'
p705
I776
sS'INT.N'
p706
I1652
sS'GNTX.O'
p707
I1515
sS'SSNC.O'
p708
I541
sS'NYLD.N'
p709
I224
sS'SM.N'
p710
I504
sS'BKH.N'
p711
I1047
sS'MHK.N'
p712
I91
sS'EME.N'
p713
I1353
sS'CRTO.O'
p714
I1225
sS'SE.N'
p715
I457
sS'LSTR.O'
p716
I35
sS'EGHT.O'
p717
I1342
sS'EXAS.O'
p718
I1400
sS'PBF.N'
p719
I271
sS'VRNT.O'
p720
I732
sS'AVXS.O'
p721
I985
sS'IPHI.N'
p722
I1662
sS'TRN.N'
p723
I638
sS'SMTC.O'
p724
I508
sS'CRAY.O'
p725
I1218
sS'AEG.N'
p726
I873
sS'EOG.N'
p727
I1365
sS'RHP.N'
p728
I395
sS'GWR.N'
p729
I1544
sS'DENN.O'
p730
I1282
sS'PRTY.N'
p731
I340
sS'CAJ.N'
p732
I1105
sS'PNC.N'
p733
I317
sS'TDC.N'
p734
I595
sS'YUM.N'
p735
I824
sS'JCI.N'
p736
I1686
sS'SCSS.O'
p737
I455
sS'CAH.N'
p738
I1104
sS'SDRL.N'
p739
I456
sS'MPC.N'
p740
I119
sS'GDOT.N'
p741
I1492
sS'BMCH.O'
p742
I1056
sS'SJR.N'
p743
I492
sS'APLE.N'
p744
I951
sS'BBD.N'
p745
I1009
sS'PNM.N'
p746
I320
sS'TRP.N'
p747
I640
sS'PRXL.O'
p748
I342
sS'PWE.N'
p749
I356
sS'DXCM.O'
p750
I1323
sS'RDC.N'
p751
I381
sS'ETFC.O'
p752
I1387
sS'DVN.N'
p753
I1322
sS'FCEa.N'
p754
I1418
sS'KNX.N'
p755
I1724
sS'EPAY.O'
p756
I1367
sS'ASNA.O'
p757
I968
sS'MORE.N'
p758
I117
sS'CUBE.N'
p759
I1246
sS'SYNA.O'
p760
I579
sS'TDG.N'
p761
I596
sS'MIDD.O'
p762
I94
sS'AKS.N'
p763
I904
sS'ABX.N'
p764
I850
sS'PINC.O'
p765
I307
sS'CTB.N'
p766
I1239
sS'BWXT.N'
p767
I1093
sS'CAL.N'
p768
I1107
sS'RBS.N'
p769
I379
sS'JD.O'
p770
I1689
sS'WEN.O'
p771
I762
sS'SCHW.N'
p772
I451
sS'GOOGL.O'
p773
I1520
sS'AEM.N'
p774
I876
sS'SHLM.O'
p775
I474
sS'M.N'
p776
I51
sS'SIGI.O'
p777
I483
sS'AEO.N'
p778
I877
sS'KAR.N'
p779
I1701
sS'TMO.N'
p780
I623
sS'CVX.N'
p781
I1257
sS'TWOU.O'
p782
I667
sS'LSI.N'
p783
I34
sS'AVA.N'
p784
I981
sS'PLAY.O'
p785
I311
sS'ADBE.O'
p786
I864
sS'CCP.N'
p787
I1135
sS'INFO.O'
p788
I1644
sS'RY.N'
p789
I427
sS'PBH.N'
p790
I272
sS'CAR.O'
p791
I1110
sS'AMAT.O'
p792
I921
sS'ENLC.N'
p793
I1360
sS'SHOP.N'
p794
I478
sS'PNW.N'
p795
I323
sS'ESV.N'
p796
I1385
sS'NXST.O'
p797
I221
sS'HT.N'
p798
I1609
sS'TIVO.O'
p799
I616
sS'BUD.N'
p800
I1085
sS'COST.O'
p801
I1207
sS'PII.N'
p802
I306
sS'MPW.N'
p803
I122
sS'EEFT.O'
p804
I1338
sS'SIR.O'
p805
I486
sS'CTL.N'
p806
I1240
sS'LMNX.O'
p807
I13
sS'TROW.O'
p808
I639
sS'SIG.N'
p809
I482
sS'GPI.N'
p810
I1523
sS'CBOE.O'
p811
I1122
sS'BXS.N'
p812
I1097
sS'CTRE.O'
p813
I1242
sS'INCR.O'
p814
I1641
sS'EPAM.N'
p815
I1366
sS'RYAAY.O'
p816
I428
sS'NEWM.N'
p817
I172
sS'WEB.O'
p818
I760
sS'HTH.N'
p819
I1611
sS'AF.N'
p820
I882
sS'FOX.O'
p821
I1465
sS'IRET.N'
p822
I1667
sS'ACAS.O'
p823
I853
sS'EPC.N'
p824
I1368
sS'MWA.N'
p825
I149
sS'GATX.N'
p826
I1485
sS'DVMT.N'
p827
I1761
sS'WWAV.N'
p828
I797
sS'TBI.N'
p829
I588
sS'AMPH.O'
p830
I933
sS'FIS.N'
p831
I1436
sS'KFY.N'
p832
I1710
sS'WEX.N'
p833
I1786
sS'AVY.N'
p834
I986
sS'X.N'
p835
I804
sS'PRTA.O'
p836
I339
sS'HII.N'
p837
I1574
sS'FIVE.O'
p838
I1440
sS'PPG.N'
p839
I331
sS'WFC.N'
p840
I765
sS'BPMC.O'
p841
I1067
sS'NSIT.O'
p842
I1765
sS'NJR.N'
p843
I182
sS'HZNP.O'
p844
I1620
sS'FMBI.O'
p845
I1451
sS'OCLR.O'
p846
I230
sS'EBAY.O'
p847
I1328
sS'ABM.N'
p848
I847
sS'CBI.N'
p849
I1119
sS'TMUS.O'
p850
I624
sS'HDB.N'
p851
I1567
sS'AUO.N'
p852
I979
sS'AMBC.O'
p853
I923
sS'MBT.N'
p854
I63
sS'MGLN.O'
p855
I87
sS'ROL.N'
p856
I411
sS'CBG.N'
p857
I1118
sS'NKTR.O'
p858
I184
sS'ACXM.O'
p859
I863
sS'LLY.N'
p860
I10
sS'SWN.N'
p861
I572
sS'TTWO.O'
p862
I663
sS'TWTR.N'
p863
I668
sS'NBR.N'
p864
I161
sS'DB.N'
p865
I1272
sS'BPL.N'
p866
I1066
sS'RTN.N'
p867
I423
sS'NOK.N'
p868
I190
sS'AZPN.O'
p869
I997
sS'XLNX.O'
p870
I809
sS'WHR.N'
p871
I769
sS'SUN.N'
p872
I565
sS'GPS.N'
p873
I1529
sS'MYL.O'
p874
I154
sS'FMX.N'
p875
I1454
sS'IEX.N'
p876
I1634
sS'FOLD.O'
p877
I1462
sS'ABC.N'
p878
I844
sS'FTNT.O'
p879
I1480
sS'PBCT.O'
p880
I270
sS'TJX.N'
p881
I617
sS'WMT.N'
p882
I777
sS'NOW.N'
p883
I193
sS'CSRA.N'
p884
I1235
sS'PKG.N'
p885
I308
sS'CYNO.O'
p886
I1263
sS'MXIM.O'
p887
I150
sS'PRI.N'
p888
I337
sS'BMO.N'
p889
I1057
sS'MAT.O'
p890
I60
sS'AKRX.O'
p891
I903
sS'LBTYA.O'
p892
I1745
sS'SBGI.O'
p893
I440
sS'CHRW.O'
p894
I1158
sS'FULT.O'
p895
I1483
sS'CDE.N'
p896
I1136
sS'CVLT.O'
p897
I1254
sS'BMY.N'
p898
I1060
sS'CGNX.O'
p899
I1150
sS'LGF.N'
p900
I1756
sS'CHRS.O'
p901
I1157
sS'WWW.N'
p902
I800
sS'LYG.N'
p903
I48
sS'RSPP.N'
p904
I422
sS'VAR.N'
p905
I712
sS'CMCSA.O'
p906
I1182
sS'CHL.N'
p907
I1155
sS'EA.O'
p908
I1326
sS'RSG.N'
p909
I421
sS'LRCX.O'
p910
I32
sS'NWL.N'
p911
I217
sS'CBS.N'
p912
I1124
sS'KRNY.O'
p913
I1732
sS'ABY.O'
p914
I851
sS'AEP.N'
p915
I878
sS'LPI.N'
p916
I25
sS'XOM.N'
p917
I812
sS'JCP.N'
p918
I1688
sS'PPL.N'
p919
I332
sS'KRG.N'
p920
I1731
sS'LBRDK.O'
p921
I1744
sS'WPX.N'
p922
I784
sS'HMHC.O'
p923
I1582
sS'SEIC.O'
p924
I460
sS'XRS.N'
p925
I816
sS'HRS.N'
p926
I1602
sS'VG.N'
p927
I717
sS'DV.N'
p928
I1320
sS'SYKE.O'
p929
I577
sS'ALNY.O'
p930
I915
sS'NOC.N'
p931
I189
sS'H.N'
p932
I1548
sS'VA.O'
p933
I709
sS'SBH.N'
p934
I442
sS'SHPG.O'
p935
I479
sS'BHP.N'
p936
I1037
sS'FB.O'
p937
I1413
sS'AGR.N'
p938
I892
sS'PCH.O'
p939
I279
sS'MBFI.O'
p940
I61
sS'WMB.N'
p941
I775
sS'OLLI.O'
p942
I242
sS'KEY.N'
p943
I1708
sS'PSX.N'
p944
I347
sS'DNR.N'
p945
I1305
sS'TSN.N'
p946
I653
sS'OXY.N'
p947
I257
sS'AER.N'
p948
I879
sS'DGX.N'
p949
I1290
sS'XON.N'
p950
I813
sS'NTGR.O'
p951
I205
sS'OI.N'
p952
I236
sS'UBS.N'
p953
I678
sS'ZIOP.O'
p954
I833
sS'TGI.N'
p955
I607
sS'NBL.N'
p956
I160
sS'WCN.N'
p957
I756
sS'SHW.N'
p958
I480
sS'CDK.O'
p959
I1137
sS'WB.O'
p960
I749
sS'SPG.N'
p961
I523
sS'APOG.O'
p962
I953
sS'MLM.N'
p963
I101
sS'AMG.N'
p964
I928
sS'TS.N'
p965
I646
sS'CRM.N'
p966
I1223
sS'KBH.N'
p967
I1703
sS'EDR.N'
p968
I1336
sS'SCAI.O'
p969
I448
sS'CRS.N'
p970
I1224
sS'EW.N'
p971
I1398
sS'MDC.N'
p972
I69
sS'ADS.N'
p973
I869
sS'PEP.N'
p974
I293
sS'PX.N'
p975
I358
sS'CCOI.O'
p976
I1134
sS'TSL.N'
p977
I650
sS'HIW.N'
p978
I1576
sS'CME.O'
p979
I1183
sS'MNTA.O'
p980
I112
sS'FSIC.N'
p981
I1473
sS'BDC.N'
p982
I1020
sS'SCCO.N'
p983
I449
sS'HAIN.O'
p984
I1551
sS'CSAL.O'
p985
I1229
sS'MMS.N'
p986
I106
sS'RDSb.N'
p987
I384
sS'MTB.N'
p988
I136
sS'LXRX.O'
p989
I46
sS'AL.N'
p990
I905
sS'AN.N'
p991
I938
sS'CMS.N'
p992
I1187
sS'JBHT.O'
p993
I1683
sS'FL.N'
p994
I1443
sS'COO.N'
p995
I1204
sS'FN.N'
p996
I1455
sS'BRKR.O'
p997
I1072
sS'ELS.N'
p998
I1351
sS'SABR.O'
p999
I431
sS'RDN.N'
p1000
I382
sS'LTRPA.O'
p1001
I38
sS'TRTN.N'
p1002
I642
sS'GBX.N'
p1003
I1487
sS'CHT.N'
p1004
I1775
sS'LEG.N'
p1005
I1752
sS'BAX.N'
p1006
I1007
sS'FBR.N'
p1007
I1416
sS'EIX.N'
p1008
I1347
sS'VOD.O'
p1009
I729
sS'FBP.N'
p1010
I1415
sS'BWA.N'
p1011
I1090
sS'OC.N'
p1012
I229
sS'ENSG.O'
p1013
I1363
sS'BPFH.O'
p1014
I1065
sS'INTC.O'
p1015
I1653
sS'OA.N'
p1016
I227
sS'UNP.N'
p1017
I696
sS'BRFS.N'
p1018
I1071
sS'MDU.N'
p1019
I76
sS'IAC.O'
p1020
I1621
sS'ETN.N'
p1021
I1388
sS'BW.N'
p1022
I1089
sS'BCR.N'
p1023
I1018
sS'IMPV.N'
p1024
I1640
sS'WTFC.O'
p1025
I793
sS'LM.N'
p1026
I11
sS'GOV.O'
p1027
I1521
sS'AON.N'
p1028
I943
sS'CCI.N'
p1029
I1130
sS'GS.N'
p1030
I1535
sS'GG.N'
p1031
I1497
sS'CIEN.N'
p1032
I1165
sS'GE.N'
p1033
I1493
sS'WDAY.N'
p1034
I757
sS'PFPT.O'
p1035
I297
sS'HST.N'
p1036
I1607
sS'OMC.N'
p1037
I244
sS'PB.N'
p1038
I269
sS'ADI.O'
p1039
I865
sS'DRQ.N'
p1040
I1316
sS'AROC.N'
p1041
I961
sS'FSLR.O'
p1042
I1474
sS'CENTA.O'
p1043
I1142
sS'HD.N'
p1044
I1566
sS'TNET.N'
p1045
I625
sS'CVBF.O'
p1046
I1250
sS'PSEC.O'
p1047
I344
sS'DKS.N'
p1048
I1297
sS'ITT.N'
p1049
I1676
sS'NWS.O'
p1050
I218
sS'AMN.N'
p1051
I1772
sS'SERV.N'
p1052
I464
sS'EGN.N'
p1053
I1343
sS'ATU.N'
p1054
I976
sS'AMH.N'
p1055
I930
sS'IVR.N'
p1056
I1679
sS'PFE.N'
p1057
I295
sS'IFF.N'
p1058
I1635
sS'NVDA.O'
p1059
I211
sS'K.N'
p1060
I1700
sS'LILA.O'
p1061
I4
sS'ISRG.O'
p1062
I1673
sS'AINV.O'
p1063
I895
sS'PZZA.O'
p1064
I361
sS'PBRa.N'
p1065
I275
sS'JACK.O'
p1066
I1681
sS'SON.N'
p1067
I520
sS'ATHN.O'
p1068
I971
sS'FII.N'
p1069
I1434
sS'HAL.N'
p1070
I1552
sS'IVZ.N'
p1071
I1680
sS'QCOM.O'
p1072
I363
sS'LC.N'
p1073
I1747
sS'GGB.N'
p1074
I1499
sS'KOS.N'
p1075
I1727
sS'BIDU.O'
p1076
I1039
sS'FLR.N'
p1077
I1448
sS'CATM.O'
p1078
I1113
sS'HALO.O'
p1079
I1553
sS'USCR.O'
p1080
I703
sS'STAG.N'
p1081
I546
sS'PCLN.O'
p1082
I280
sS'HCP.N'
p1083
I1564
sS'GSM.O'
p1084
I1538
sS'MTU.N'
p1085
I143
sS'AMD.O'
p1086
I925
sS'ZLTQ.O'
p1087
I834
sS'DFT.N'
p1088
I1287
sS'QSR.N'
p1089
I368
sS'LKQ.O'
p1090
I8
sS'RDUS.O'
p1091
I385
sS'RAI.N'
p1092
I375
sS'HTGC.N'
p1093
I1784
sS'JEC.N'
p1094
I1690
sS'PHM.N'
p1095
I305
sS'FIG.N'
p1096
I1433
sS'F.N'
p1097
I1409
sS'ATO.N'
p1098
I973
sS'KN.N'
p1099
I1722
sS'NRF.N'
p1100
I194
sS'DPLO.N'
p1101
I1311
sS'NFG.N'
p1102
I174
sS'PAA.N'
p1103
I259
sS'BRCD.O'
p1104
I1070
sS'ALE.N'
p1105
I908
sS'JLL.N'
p1106
I1692
sS'STJ.N'
p1107
I551
sS'HSIC.O'
p1108
I1605
sS'CBSH.O'
p1109
I1125
sS'DNOW.N'
p1110
I1304
sS'OPB.O'
p1111
I1794
sS'SFLY.O'
p1112
I467
sS'PMT.N'
p1113
I316
sS'XRAY.O'
p1114
I815
sS'STL.N'
p1115
I552
sS'MON.N'
p1116
I116
sS'HOG.N'
p1117
I1585
sS'RL.N'
p1118
I401
sS'CATY.O'
p1119
I1114
sS'BJRI.O'
p1120
I1043
sS'MAN.N'
p1121
I55
sS'AMP.N'
p1122
I932
sS'RLJ.N'
p1123
I403
sS'ISBC.O'
p1124
I1670
sS'LQ.N'
p1125
I31
sS'CX.N'
p1126
I1258
sS'EC.N'
p1127
I1331
sS'LOPE.O'
p1128
I23
sS'ARLP.O'
p1129
I1783
sS'LUK.N'
p1130
I40
sS'IBM.N'
p1131
I1626
sS'PAG.N'
p1132
I263
sS'TTEK.O'
p1133
I659
sS'FPRX.O'
p1134
I1467
sS'HSC.N'
p1135
I1604
sS'ASML.O'
p1136
I967
sS'VNDA.O'
p1137
I1757
sS'EVER.N'
p1138
I1394
sS'NEP.N'
p1139
I171
sS'DISH.O'
p1140
I1296
sS'SFUN.N'
p1141
I1769
sS'PTLA.O'
p1142
I351
sS'ITW.N'
p1143
I1678
sS'OPK.O'
p1144
I251
sS'LCI.N'
p1145
I1748
sS'V.N'
p1146
I708
sS'ARW.N'
p1147
I964
sS'SRCL.O'
p1148
I537
sS'PAY.N'
p1149
I266
sS'VEEV.N'
p1150
I714
sS'PHG.N'
p1151
I303
sS'PCAR.O'
p1152
I277
sS'TKR.N'
p1153
I618
sS'LPX.N'
p1154
I30
sS'JWN.N'
p1155
I1699
sS'ARI.N'
p1156
I958
sS'GCP.N'
p1157
I1489
sS'ENLK.N'
p1158
I1361
sS'IPG.N'
p1159
I1660
sS'JNPR.N'
p1160
I1694
sS'GCI.N'
p1161
I1488
sS'BLMN.O'
p1162
I1054
sS'ARE.N'
p1163
I957
sS'SINA.O'
p1164
I485
sS'MDRX.O'
p1165
I73
sS'INN.N'
p1166
I1648
sS'FRT.N'
p1167
I1472
sS'YNDX.O'
p1168
I821
sS'CDNS.O'
p1169
I1138
sS'SBNY.O'
p1170
I443
sS'BFb.N'
p1171
I1029
sS'CPPL.N'
p1172
I1768
sS'ICPT.O'
p1173
I1630
sS'EIGI.O'
p1174
I1346
sS'VWR.O'
p1175
I741
sS'EAT.N'
p1176
I1327
sS'YY.O'
p1177
I825
sS'VIPS.N'
p1178
I721
sS'CNHI.N'
p1179
I1189
sS'VRSN.O'
p1180
I734
sS'APFH.N'
p1181
I949
sS'DOX.O'
p1182
I1310
sS'CFR.N'
p1183
I1147
sS'IIVI.O'
p1184
I1637
sS'CLI.N'
p1185
I1174
sS'BCO.N'
p1186
I1017
sS'DPZ.N'
p1187
I1312
sS'YPF.N'
p1188
I822
sS'RIG.N'
p1189
I398
sS'TDS.N'
p1190
I597
sS'HSY.N'
p1191
I1608
sS'TAP.N'
p1192
I586
sS'ALSN.N'
p1193
I917
sS'BG.N'
p1194
I1030
sS'VVV.N'
p1195
I1790
sS'UAc.N'
p1196
I676
sS'AYR.N'
p1197
I995
sS'XL.N'
p1198
I808
sS'USFD.N'
p1199
I704
sS'RPM.N'
p1200
I416
sS'GKOS.N'
p1201
I1506
sS'LSCC.O'
p1202
I33
sS'MDXG.O'
p1203
I77
sS'CCL.N'
p1204
I1133
sS'BSMX.N'
p1205
I1080
sS'EQT.N'
p1206
I1375
sS'LFC.N'
p1207
I1754
sS'HOPE.O'
p1208
I1590
sS'AGCO.N'
p1209
I887
sS'CFX.N'
p1210
I1148
sS'SFM.O'
p1211
I468
sS'HTZ.N'
p1212
I1613
sS'ALK.N'
p1213
I910
sS'PNK.O'
p1214
I319
sS'CALM.O'
p1215
I1109
sS'GDDY.N'
p1216
I1491
sS'INGR.N'
p1217
I1647
sS'LOGM.O'
p1218
I22
sS'FIZZ.O'
p1219
I1442
sS'AMGN.O'
p1220
I929
sS'AWH.N'
p1221
I987
sS'TRV.N'
p1222
I645
sS'ACGL.O'
p1223
I856
sS'TEAM.O'
p1224
I598
sS'CNQ.N'
p1225
I1194
sS'NCLH.O'
p1226
I162
sS'LOGI.O'
p1227
I21
sS'CCJ.N'
p1228
I1131
sS'IART.O'
p1229
I1623
sS'INSM.O'
p1230
I1650
sS'CREE.O'
p1231
I1219
sS'JKHY.O'
p1232
I1691
sS'ZAYO.N'
p1233
I827
sS'DOV.N'
p1234
I1308
sS'NNN.N'
p1235
I188
sS'SNPS.O'
p1236
I515
sS'SQM.N'
p1237
I534
sS'DLTR.O'
p1238
I1301
sS'CNO.N'
p1239
I1192
sS'NWSA.O'
p1240
I219
sS'SPTN.O'
p1241
I530
sS'MTCH.O'
p1242
I137
sS'SCOR.O'
p1243
I453
sS'VFC.N'
p1244
I716
sS'W.N'
p1245
I743
sS'NYCB.N'
p1246
I223
sS'SMFG.N'
p1247
I506
sS'BSX.N'
p1248
I1081
sS'WERN.O'
p1249
I763
sS'ALXN.O'
p1250
I918
sS'LECO.O'
p1251
I1751
sS'CTSH.O'
p1252
I1244
sS'HOLX.O'
p1253
I1587
sS'SIRI.O'
p1254
I487
sS'BBVA.N'
p1255
I1013
sS'CG.O'
p1256
I1149
sS'MEG.N'
p1257
I78
sS'BP.N'
p1258
I1064
sS'MJN.N'
p1259
I96
sS'SNY.N'
p1260
I518
sS'INFY.N'
p1261
I1645
sS'CHSP.N'
p1262
I1160
sS'SLF.N'
p1263
I500
sS'COTY.N'
p1264
I1209
sS'DDS.N'
p1265
I1278
sS'LVLT.N'
p1266
I43
sS'SNV.N'
p1267
I517
sS'WTR.N'
p1268
I794
sS'GEO.N'
p1269
I1495
sS'LH.N'
p1270
I1
sS'SEMG.N'
p1271
I462
sS'DGI.N'
p1272
I1289
sS'HAS.O'
p1273
I1555
sS'GIS.N'
p1274
I1505
sS'VNTV.N'
p1275
I728
sS'STAR.N'
p1276
I547
sS'HW.N'
p1277
I1616
sS'ACN.N'
p1278
I861
sS'LXP.N'
p1279
I45
sS'CNC.N'
p1280
I1188
sS'RGEN.O'
p1281
I392
sS'MCO.N'
p1282
I67
sS'QUAD.N'
p1283
I1782
sS'AIG.N'
p1284
I894
sS'ACHC.O'
p1285
I857
sS'CI.N'
p1286
I1163
sS'SWX.N'
p1287
I573
sS'BKE.N'
p1288
I1046
sS'KEYS.N'
p1289
I1709
sS'PACW.O'
p1290
I262
sS'HIBB.O'
p1291
I1572
sS'WAB.N'
p1292
I744
sS'UBNT.O'
p1293
I677
sS'TSLA.O'
p1294
I651
sS'NEM.N'
p1295
I170
sS'NSR.N'
p1296
I201
sS'FCX.N'
p1297
I1422
sS'HCSG.O'
p1298
I1565
sS'ETSY.O'
p1299
I1391
sS'GNRC.N'
p1300
I1514
sS'HIG.N'
p1301
I1573
sS'BXMT.N'
p1302
I1095
sS'RBA.N'
p1303
I378
sS'CM.N'
p1304
I1179
sS'SRE.N'
p1305
I538
sS'SRC.N'
p1306
I536
sS'CHMT.N'
p1307
I1156
sS'IBKC.O'
p1308
I1624
sS'IT.N'
p1309
I1674
sS'FCH.N'
p1310
I1420
sS'ECA.N'
p1311
I1332
sS'QRVO.O'
p1312
I366
sS'INXN.N'
p1313
I1657
sS'NAVI.O'
p1314
I158
sS'ING.N'
p1315
I1646
sS'JPM.N'
p1316
I1697
sS'WGL.N'
p1317
I768
sS'IP.N'
p1318
I1659
sS'CS.N'
p1319
I1228
sS'UHS.N'
p1320
I686
sS'RICE.N'
p1321
I397
sS'XYL.N'
p1322
I818
sS'SLGN.O'
p1323
I502
sS'BANC.N'
p1324
I1005
sS'RRD.N'
p1325
I1781
sS'PAAS.O'
p1326
I260
sS'CIM.N'
p1327
I1167
sS'LBTYK.O'
p1328
I1746
sS'PKI.N'
p1329
I309
sS'DF.N'
p1330
I1285
sS'KMI.N'
p1331
I1719
sS'HA.O'
p1332
I1549
sS'DD.N'
p1333
I1276
sS'ANF.N'
p1334
I940
sS'PSXP.N'
p1335
I348
sS'FORM.O'
p1336
I1463
sS'GRFS.O'
p1337
I1531
sS'ACCO.N'
p1338
I855
sS'GPOR.O'
p1339
I1526
sS'TECD.O'
p1340
I599
sS'WBC.N'
p1341
I751
sS'RLGY.N'
p1342
I402
sS'SWKS.O'
p1343
I571
sS'HPQ.N'
p1344
I1594
sS'WOR.N'
p1345
I781
sS'ROP.N'
p1346
I412
sS'PTEN.O'
p1347
I350
sS'PTC.O'
p1348
I349
sS'MELI.O'
p1349
I79
sS'KTWO.O'
p1350
I1738
sS'PRIM.O'
p1351
I338
sS'TSCO.O'
p1352
I647
sS'MOMO.O'
p1353
I115
sS'EVHC.N'
p1354
I1396
sS'VGR.N'
p1355
I718
sS'LNCE.O'
p1356
I17
sS'BMS.N'
p1357
I1059
sS'BLDR.O'
p1358
I1050
sS'EXLS.O'
p1359
I1403
sS'PRU.N'
p1360
I341
sS'RRR.O'
p1361
I419
sS'JAZZ.O'
p1362
I1682
sS'UCBI.O'
p1363
I680
sS'MTSI.O'
p1364
I142
sS'ICLR.O'
p1365
I1629
sS'GILD.O'
p1366
I1503
sS'CALD.O'
p1367
I1108
sS'SBUX.O'
p1368
I446
sS'UTX.N'
p1369
I707
sS'WWE.N'
p1370
I799
sS'CDW.O'
p1371
I1139
sS'PLD.N'
p1372
I313
sS'EXPR.N'
p1373
I1407
sS'WETF.O'
p1374
I764
sS'BRKb.N'
p1375
I1074
sS'CHD.N'
p1376
I1151
sS'ARRY.O'
p1377
I1774
sS'LNG.A'
p1378
I18
sS'JBLU.O'
p1379
I1685
sS'DTE.N'
p1380
I1318
sS'VRSK.O'
p1381
I733
sS'QUOT.N'
p1382
I370
sS'SYMC.O'
p1383
I578
sS'CSL.N'
p1384
I1233
sS'AUY.N'
p1385
I980
sS'OSK.N'
p1386
I255
sS'AMAG.O'
p1387
I920
sS'AET.N'
p1388
I881
sS'FSP.A'
p1389
I1476
sS'BEAV.O'
p1390
I1023
sS'SR.N'
p1391
I535
sS'EXR.N'
p1392
I1408
sS'HXL.N'
p1393
I1618
sS'AEL.N'
p1394
I875
sS'AXL.N'
p1395
I991
sS'CST.N'
p1396
I1236
sS'MMM.N'
p1397
I104
sS'HUN.N'
p1398
I1615
sS'INTU.O'
p1399
I1654
sS'MMC.N'
p1400
I103
sS'FMSA.N'
p1401
I1453
sS'CVS.N'
p1402
I1256
sS'ELY.N'
p1403
I1352
sS'QEP.N'
p1404
I364
sS'TCBI.O'
p1405
I591
sS'HPE.N'
p1406
I1592
sS'BPOP.O'
p1407
I1068
sS'ST.N'
p1408
I545
sS'ATVI.O'
p1409
I977
sS'COG.N'
p1410
I1197
sS'TILE.O'
p1411
I614
sS'APAM.N'
p1412
I946
sS'AERI.O'
p1413
I1760
sS'ERF.N'
p1414
I1377
sS'ZEN.N'
p1415
I830
sS'IBN.N'
p1416
I1627
sS'UNT.N'
p1417
I697
sS'FHN.N'
p1418
I1431
sS'DAL.N'
p1419
I1268
sS'HRI.N'
p1420
I1600
sS'CSX.O'
p1421
I1237
sS'POST.N'
p1422
I328
sS'BXP.N'
p1423
I1096
sS'IPGP.O'
p1424
I1661
sS'ES.N'
p1425
I1380
sS'SHO.N'
p1426
I476
sS'MRO.N'
p1427
I127
sS'IONS.O'
p1428
I1658
sS'BETR.N'
p1429
I1028
sS'OLED.O'
p1430
I241
sS'CTXS.O'
p1431
I1245
sS'CINF.O'
p1432
I1168
sS'SPXC.N'
p1433
I532
sS'THS.N'
p1434
I612
sS'SHAK.N'
p1435
I472
sS'DRI.N'
p1436
I1315
sS'LOW.N'
p1437
I24
sS'KBR.N'
p1438
I1704
sS'WPG.N'
p1439
I783
sS'WDR.N'
p1440
I759
sS'CONE.O'
p1441
I1203
sS'PEB.N'
p1442
I287
sS'TXRH.O'
p1443
I673
sS'TRIP.O'
p1444
I635
sS'SHLX.N'
p1445
I475
sS'QLYS.O'
p1446
I365
sS'MGP.N'
p1447
I90
sS'UMBF.O'
p1448
I689
sS'APH.N'
p1449
I950
sS'MSCI.N'
p1450
I131
sS'APD.N'
p1451
I948
sS'EPR.N'
p1452
I1371
sS'FCPT.N'
p1453
I1421
sS'VNO.N'
p1454
I727
sS'EEP.N'
p1455
I1339
sS'CRUS.O'
p1456
I1226
sS'AR.N'
p1457
I955
sS'HBHC.O'
p1458
I1559
sS'MBI.N'
p1459
I62
sS'SLAB.O'
p1460
I497
sS'JCOM.O'
p1461
I1687
sS'CVG.N'
p1462
I1252
sS'OMI.N'
p1463
I246
sS'TASR.O'
p1464
I587
sS'CVE.N'
p1465
I1251
sS'DEO.N'
p1466
I1283
sS'REGN.O'
p1467
I387
sS'PENN.O'
p1468
I292
sS'AVT.N'
p1469
I984
sS'GPN.N'
p1470
I1525
sS'IAG.N'
p1471
I1622
sS'MDLZ.O'
p1472
I71
sS'BAH.N'
p1473
I1002
sS'ROK.N'
p1474
I410
sS'SBGL.N'
p1475
I441
sS'MTDR.N'
p1476
I138
sS'LYV.N'
p1477
I49
sS'MUR.N'
p1478
I146
sS'UL.N'
p1479
I687
sS'GTLS.O'
p1480
I1541
sS'BLK.N'
p1481
I1051
sS'GIL.N'
p1482
I1502
sS'UN.N'
p1483
I692
sS'MUX.N'
p1484
I148
sS'BRX.N'
p1485
I1076
sS'BOFI.O'
p1486
I1062
sS'DHR.N'
p1487
I1292
sS'AVP.N'
p1488
I983
sS'CAA.N'
p1489
I1101
sS'AJG.N'
p1490
I899
sS'EQIX.O'
p1491
I1373
sS'GBCI.O'
p1492
I1486
sS'UNH.N'
p1493
I694
sS'TRUE.O'
p1494
I644
sS'INOV.O'
p1495
I1649
sS'TUP.N'
p1496
I664
sS'PSA.N'
p1497
I343
sS'NAV.N'
p1498
I157
sS'DRE.N'
p1499
I1313
sS'LOCK.N'
p1500
I20
sS'HPT.O'
p1501
I1595
sS'FFIV.O'
p1502
I1429
sS'CAVM.O'
p1503
I1115
sS'KT.N'
p1504
I1737
sS'PSO.N'
p1505
I345
sS'NRZ.N'
p1506
I196
sS'UGI.N'
p1507
I684
sS'KR.N'
p1508
I1728
sS'PGH.N'
p1509
I299
sS'GOLD.O'
p1510
I1518
sS'INCY.O'
p1511
I1642
sS'MHLD.O'
p1512
I92
sS'MNR.N'
p1513
I109
sS'SUI.N'
p1514
I563
sS'SAP.N'
p1515
I437
sS'FFIN.O'
p1516
I1793
sS'AFSI.O'
p1517
I885
sS'EPD.N'
p1518
I1369
sS'SHLD.O'
p1519
I473
sS'PGR.N'
p1520
I300
sS'TLLP.N'
p1521
I619
sS'CELG.O'
p1522
I1141
sS'ACIA.O'
p1523
I858
sS'TEN.N'
p1524
I602
sS'TX.N'
p1525
I670
sS'NWBI.O'
p1526
I215
sS'WU.N'
p1527
I795
sS'TXN.O'
p1528
I672
sS'CHFC.O'
p1529
I1152
sS'SXL.N'
p1530
I574
sS'FTK.N'
p1531
I1479
sS'PSTG.N'
p1532
I346
sS'AXS.N'
p1533
I993
sS'KGC.N'
p1534
I1711
sS'ANSS.O'
p1535
I941
sS'BWLD.O'
p1536
I1091
sS'CBD.N'
p1537
I1117
sS'PUK.N'
p1538
I352
sS'HLX.N'
p1539
I1580
sS'HAWK.O'
p1540
I1557
sS'CHTR.O'
p1541
I1161
sS'SBS.N'
p1542
I445
sS'MSCC.O'
p1543
I130
sS'FEYE.O'
p1544
I1428
sS'QTS.N'
p1545
I369
sS'NBIX.O'
p1546
I159
sS'MSGN.N'
p1547
I133
sS'TEVA.N'
p1548
I605
sS'MENT.O'
p1549
I80
sS'JBL.N'
p1550
I1684
sS'MDCO.O'
p1551
I70
sS'USB.N'
p1552
I702
sS'WPC.N'
p1553
I782
sS'CSCO.O'
p1554
I1230
sS'SBAC.O'
p1555
I439
sS'DEI.N'
p1556
I1281
sS'LDOS.N'
p1557
I1749
sS'CYS.N'
p1558
I1264
sS'IRWD.O'
p1559
I1669
sS'NUS.N'
p1560
I209
sS'AGI.N'
p1561
I888
sS'LPT.N'
p1562
I29
sS'MOH.N'
p1563
I114
sS'TSO.N'
p1564
I654
sS'BID.N'
p1565
I1038
sS'VZ.N'
p1566
I742
sS'AGO.N'
p1567
I891
sS'NFLX.O'
p1568
I175
sS'STT.N'
p1569
I558
sS'NYT.N'
p1570
I225
sS'LPL.N'
p1571
I26
sS'HCN.N'
p1572
I1563
sS'WBMD.O'
p1573
I752
sS'ASH.N'
p1574
I966
sS'AMX.N'
p1575
I936
sS'ULTI.O'
p1576
I1795
sS'WM.N'
p1577
I774
sS'FLEX.O'
p1578
I1444
sS'PVTB.O'
p1579
I355
sS'MPEL.O'
p1580
I120
sS'PDCE.O'
p1581
I282
sS'MLHR.O'
p1582
I100
sS'KRO.N'
p1583
I1733
sS'KMT.N'
p1584
I1720
sS'ORI.N'
p1585
I253
sS'CTAS.O'
p1586
I1238
sS'PGRE.N'
p1587
I301
sS'WY.N'
p1588
I801
sS'NLY.N'
p1589
I186
sS'ENH.N'
p1590
I1358
sS'ESNT.N'
p1591
I1381
sS'TEF.N'
p1592
I600
sS'ILG.O'
p1593
I1759
sS'COP.N'
p1594
I1205
sS'ALDR.O'
p1595
I907
sS'SLCA.N'
p1596
I499
sS'TSM.N'
p1597
I652
sS'TER.N'
p1598
I603
sS'FSM.N'
p1599
I1475
sS'BSAC.N'
p1600
I1077
sS'CPB.N'
p1601
I1212
sS'MTG.N'
p1602
I139
sS'TD.N'
p1603
I594
sS'TXT.N'
p1604
I674
sS'UDR.N'
p1605
I681
sS'NGHC.O'
p1606
I1771
sS'ZTS.N'
p1607
I836
sS'UNVR.N'
p1608
I698
sS'RDSa.N'
p1609
I383
sS'MMP.N'
p1610
I105
sS'CHKP.O'
p1611
I1154
sS'ALKS.O'
p1612
I911
sS'CBL.N'
p1613
I1120
sS'GRUB.N'
p1614
I1534
sS'NCR.N'
p1615
I164
sS'CPL.N'
p1616
I1215
sS'ETE.N'
p1617
I1386
sS'LPLA.O'
p1618
I27
sS'DUK.N'
p1619
I1319
sS'AM.N'
p1620
I919
sS'APC.N'
p1621
I947
sS'ENB.N'
p1622
I1356
sS'VIAV.O'
p1623
I720
sS'GME.N'
p1624
I1511
sS'CPT.N'
p1625
I1217
sS'BUFF.O'
p1626
I1086
sS'PCG.N'
p1627
I278
sS'SRPT.O'
p1628
I539
sS'APA.N'
p1629
I945
sS'POR.N'
p1630
I327
sS'BRKS.O'
p1631
I1073
sS'APO.N'
p1632
I952
sS'GTE.A'
p1633
I1540
sS'SWFT.N'
p1634
I568
sS'NXPI.O'
p1635
I220
sS'CSOD.O'
p1636
I1234
sS'COR.N'
p1637
I1206
sS'HLF.N'
p1638
I1578
sS'NCMI.O'
p1639
I163
sS'FDC.N'
p1640
I1423
sS'CHU.N'
p1641
I1162
sS'VTR.N'
p1642
I739
sS'STX.O'
p1643
I560
sS'BCE.N'
p1644
I1016
sS'STZ.N'
p1645
I561
sS'ERIC.O'
p1646
I1378
sS'RACE.N'
p1647
I373
sS'MDSO.O'
p1648
I74
sS'BSFT.O'
p1649
I1079
sS'BOX.N'
p1650
I1063
sS'TSU.N'
p1651
I657
sS'KMB.N'
p1652
I1718
sS'BT.N'
p1653
I1082
sS'ISLE.O'
p1654
I1672
sS'LITE.O'
p1655
I6
sS'UE.N'
p1656
I682
sS'PEI.N'
p1657
I291
sS'VOYA.N'
p1658
I730
sS'EXEL.O'
p1659
I1402
sS'APOL.O'
p1660
I954
sS'GXP.N'
p1661
I1547
sS'SKM.N'
p1662
I493
sS'LLTC.O'
p1663
I9
sS'LN.N'
p1664
I15
sS'WSM.N'
p1665
I791
sS'SPB.N'
p1666
I522
sS'NI.N'
p1667
I181
sS'ROST.O'
p1668
I413
sS'CR.N'
p1669
I1792
sS'BLUE.O'
p1670
I1055
sS'UPS.N'
p1671
I699
sS'FET.N'
p1672
I1427
sS'CZZ.N'
p1673
I1266
sS'RIO.N'
p1674
I399
sS'CRH.N'
p1675
I1220
sS'HYH.N'
p1676
I1619
sS'DBD.N'
p1677
I1273
sS'ADP.O'
p1678
I867
sS'SWHC.O'
p1679
I569
sS'COH.N'
p1680
I1198
sS'AG.N'
p1681
I886
sS'OGS.N'
p1682
I1789
sS'BECN.O'
p1683
I1024
sS'SSW.N'
p1684
I543
sS'HSBC.N'
p1685
I1603
sS'PEG.N'
p1686
I288
sS'BR.N'
p1687
I1069
sS'FE.N'
p1688
I1426
sS'BAC.N'
p1689
I1001
sS'EQR.N'
p1690
I1374
sS'KW.N'
p1691
I1739
sS'GMED.N'
p1692
I1512
sS'ZBH.N'
p1693
I828
sS'ATHM.N'
p1694
I970
sS'WDC.O'
p1695
I758
sS'HTLD.O'
p1696
I1612
sS'AMED.O'
p1697
I927
sS'CASY.O'
p1698
I1111
sS'VER.N'
p1699
I715
sS'LB.N'
p1700
I1743
sS'HWAY.O'
p1701
I1617
sS'PAYC.N'
p1702
I267
sS'PG.N'
p1703
I298
sS'FNGN.O'
p1704
I1458
sS'TCB.N'
p1705
I590
sS'OFC.N'
p1706
I233
sS'FNSR.O'
p1707
I1459
sS'BAM.N'
p1708
I1004
sS'MKC.N'
p1709
I97
sS'CZR.O'
p1710
I1265
sS'GT.O'
p1711
I1539
sS'BX.N'
p1712
I1094
sS'MCK.N'
p1713
I66
sS'DSW.N'
p1714
I1317
sS'LMCK.O'
p1715
I12
sS'KEX.N'
p1716
I1707
sS'SYF.N'
p1717
I575
sS'INSY.O'
p1718
I1651
sS'CLNY.N'
p1719
I1175
sS'TIME.N'
p1720
I615
sS'BTE.N'
p1721
I1083
sS'BTG.A'
p1722
I1084
sS'AMTD.O'
p1723
I935
sS'WRB.N'
p1724
I787
sS'GRMN.O'
p1725
I1532
sS'MDP.N'
p1726
I72
sS'KEP.N'
p1727
I1706
sS'WLTW.O'
p1728
I773
sS'MIK.O'
p1729
I95
sS'AU.N'
p1730
I978
sS'BURL.N'
p1731
I1087
sS'CNK.N'
p1732
I1191
sS'SPLK.O'
p1733
I525
sS'PHH.N'
p1734
I304
sS'CNI.N'
p1735
I1190
sS'KO.N'
p1736
I1725
sS'ENDP.O'
p1737
I1357
sS'CTLT.N'
p1738
I1241
sS'BABA.N'
p1739
I999
sS'GPRO.O'
p1740
I1528
sS'WAL.N'
p1741
I747
sS'XEL.N'
p1742
I806
sS'STI.N'
p1743
I550
sS'MO.N'
p1744
I113
sS'DFS.N'
p1745
I1286
sS'CC.N'
p1746
I1127
sS'MA.N'
p1747
I52
sS'BYD.N'
p1748
I1098
sS'CA.O'
p1749
I1100
sS'SCG.N'
p1750
I450
sS'KLIC.O'
p1751
I1716
sS'ANTM.N'
p1752
I942
sS'FOSL.O'
p1753
I1464
sS'TPX.N'
p1754
I630
sS'ALLY.N'
p1755
I914
sS'FLOW.N'
p1756
I1447
sS'SBRA.O'
p1757
I444
sS'CY.O'
p1758
I1261
sS'TRMK.O'
p1759
I637
sS'FCF.N'
p1760
I1419
sS'AMCX.O'
p1761
I924
sS'JNS.N'
p1762
I1695
sS'SLB.N'
p1763
I498
sS'SAIC.N'
p1764
I434
sS'NEE.N'
p1765
I169
sS'MAS.N'
p1766
I58
sS'GOGO.O'
p1767
I1517
sS'WBA.O'
p1768
I750
sS'EFX.N'
p1769
I1341
sS'MGNX.O'
p1770
I89
sS'ENIA.N'
p1771
I1359
sS'VECO.O'
p1772
I713
sS'LZB.N'
p1773
I50
sS'NVS.N'
p1774
I214
sS'MSM.N'
p1775
I135
sS'SYT.N'
p1776
I582
sS'HE.N'
p1777
I1569
sS'SNR.N'
p1778
I516
sS'XNCR.O'
p1779
I811
sS'VSAT.O'
p1780
I736
sS'WAT.N'
p1781
I748
sS'CBRL.O'
p1782
I1123
sS'T.N'
p1783
I584
sS'STLD.O'
p1784
I553
sS'ERJ.N'
p1785
I1379
sS'PCRX.O'
p1786
I281
sS'CPE.N'
p1787
I1213
sS'CPG.N'
p1788
I1214
sS'SCI.N'
p1789
I452
sS'TAHO.N'
p1790
I585
sS'AOS.N'
p1791
I944
sS'STE.N'
p1792
I549
sS'OPHT.O'
p1793
I250
sS'MSI.N'
p1794
I134
sS'SID.N'
p1795
I481
sS'WBS.N'
p1796
I753
s.